
bin/Release/CM3:     file format elf32-littlearm


Disassembly of section .text:

08000110 <.text>:
 8000110:	6080      	str	r0, [r0, #8]
 8000112:	0800      	lsrs	r0, r0, #32
 8000114:	0000      	movs	r0, r0
 8000116:	2000      	movs	r0, #0
 8000118:	000c      	movs	r4, r1
 800011a:	2000      	movs	r0, #0
 800011c:	0010      	movs	r0, r2
 800011e:	2000      	movs	r0, #0
 8000120:	1550      	asrs	r0, r2, #21
 8000122:	2000      	movs	r0, #0
 8000124:	40d0      	lsrs	r0, r2
 8000126:	1c0b      	adds	r3, r1, #0
 8000128:	40d1      	lsrs	r1, r2
 800012a:	469c      	mov	ip, r3
 800012c:	3a20      	subs	r2, #32
 800012e:	40d3      	lsrs	r3, r2
 8000130:	4318      	orrs	r0, r3
 8000132:	4252      	negs	r2, r2
 8000134:	4663      	mov	r3, ip
 8000136:	4093      	lsls	r3, r2
 8000138:	4318      	orrs	r0, r3
 800013a:	4770      	bx	lr
 800013c:	4a05      	ldr	r2, [pc, #20]	; (0x8000154)
 800013e:	6993      	ldr	r3, [r2, #24]
 8000140:	f043 0310 	orr.w	r3, r3, #16
 8000144:	6193      	str	r3, [r2, #24]
 8000146:	f5a2 3280 	sub.w	r2, r2, #65536	; 0x10000
 800014a:	6853      	ldr	r3, [r2, #4]
 800014c:	f443 1300 	orr.w	r3, r3, #2097152	; 0x200000
 8000150:	6053      	str	r3, [r2, #4]
 8000152:	4770      	bx	lr
 8000154:	1000      	asrs	r0, r0, #32
 8000156:	4002      	ands	r2, r0
 8000158:	b510      	push	{r4, lr}
 800015a:	4c04      	ldr	r4, [pc, #16]	; (0x800016c)
 800015c:	68e3      	ldr	r3, [r4, #12]
 800015e:	2064      	movs	r0, #100	; 0x64
 8000160:	f483 5300 	eor.w	r3, r3, #8192	; 0x2000
 8000164:	60e3      	str	r3, [r4, #12]
 8000166:	f001 fbe1 	bl	0x800192c
 800016a:	e7f7      	b.n	0x800015c
 800016c:	1000      	asrs	r0, r0, #32
 800016e:	4001      	ands	r1, r0
 8000170:	b510      	push	{r4, lr}
 8000172:	b090      	sub	sp, #64	; 0x40
 8000174:	2214      	movs	r2, #20
 8000176:	2100      	movs	r1, #0
 8000178:	a801      	add	r0, sp, #4
 800017a:	f005 ff55 	bl	0x8006028
 800017e:	2228      	movs	r2, #40	; 0x28
 8000180:	2100      	movs	r1, #0
 8000182:	a806      	add	r0, sp, #24
 8000184:	f005 ff50 	bl	0x8006028
 8000188:	2301      	movs	r3, #1
 800018a:	9306      	str	r3, [sp, #24]
 800018c:	f44f 3380 	mov.w	r3, #65536	; 0x10000
 8000190:	2402      	movs	r4, #2
 8000192:	9307      	str	r3, [sp, #28]
 8000194:	930e      	str	r3, [sp, #56]	; 0x38
 8000196:	f44f 13e0 	mov.w	r3, #1835008	; 0x1c0000
 800019a:	a806      	add	r0, sp, #24
 800019c:	940d      	str	r4, [sp, #52]	; 0x34
 800019e:	930f      	str	r3, [sp, #60]	; 0x3c
 80001a0:	f004 f86c 	bl	0x800427c
 80001a4:	b100      	cbz	r0, 0x80001a8
 80001a6:	e7fe      	b.n	0x80001a6
 80001a8:	230f      	movs	r3, #15
 80001aa:	9301      	str	r3, [sp, #4]
 80001ac:	f44f 6380 	mov.w	r3, #1024	; 0x400
 80001b0:	9003      	str	r0, [sp, #12]
 80001b2:	9005      	str	r0, [sp, #20]
 80001b4:	4621      	mov	r1, r4
 80001b6:	a801      	add	r0, sp, #4
 80001b8:	9402      	str	r4, [sp, #8]
 80001ba:	9304      	str	r3, [sp, #16]
 80001bc:	f004 fb44 	bl	0x8004848
 80001c0:	b100      	cbz	r0, 0x80001c4
 80001c2:	e7fe      	b.n	0x80001c2
 80001c4:	b010      	add	sp, #64	; 0x40
 80001c6:	bd10      	pop	{r4, pc}
 80001c8:	b507      	push	{r0, r1, r2, lr}
 80001ca:	f7ff ffd1 	bl	0x8000170
 80001ce:	f7ff ffb5 	bl	0x800013c
 80001d2:	2201      	movs	r2, #1
 80001d4:	2300      	movs	r3, #0
 80001d6:	4905      	ldr	r1, [pc, #20]	; (0x80001ec)
 80001d8:	e88d 000c 	stmia.w	sp, {r2, r3}
 80001dc:	4804      	ldr	r0, [pc, #16]	; (0x80001f0)
 80001de:	f44f 727a 	mov.w	r2, #1000	; 0x3e8
 80001e2:	f000 ffa5 	bl	0x8001130
 80001e6:	f001 fa21 	bl	0x800162c
 80001ea:	e7fe      	b.n	0x80001ea
 80001ec:	6058      	str	r0, [r3, #4]
 80001ee:	0800      	lsrs	r0, r0, #32
 80001f0:	0159      	lsls	r1, r3, #5
 80001f2:	0800      	lsrs	r0, r0, #32
 80001f4:	e7fe      	b.n	0x80001f4
 80001f6:	0000      	movs	r0, r0
 80001f8:	2100      	movs	r1, #0
 80001fa:	e003      	b.n	0x8000204
 80001fc:	4b0a      	ldr	r3, [pc, #40]	; (0x8000228)
 80001fe:	585b      	ldr	r3, [r3, r1]
 8000200:	5043      	str	r3, [r0, r1]
 8000202:	3104      	adds	r1, #4
 8000204:	4809      	ldr	r0, [pc, #36]	; (0x800022c)
 8000206:	4b0a      	ldr	r3, [pc, #40]	; (0x8000230)
 8000208:	1842      	adds	r2, r0, r1
 800020a:	429a      	cmp	r2, r3
 800020c:	d3f6      	bcc.n	0x80001fc
 800020e:	4a09      	ldr	r2, [pc, #36]	; (0x8000234)
 8000210:	e002      	b.n	0x8000218
 8000212:	2300      	movs	r3, #0
 8000214:	f842 3b04 	str.w	r3, [r2], #4
 8000218:	4b07      	ldr	r3, [pc, #28]	; (0x8000238)
 800021a:	429a      	cmp	r2, r3
 800021c:	d3f9      	bcc.n	0x8000212
 800021e:	f000 f831 	bl	0x8000284
 8000222:	f7ff bfd1 	b.w	0x80001c8
 8000226:	4770      	bx	lr
 8000228:	6080      	str	r0, [r0, #8]
 800022a:	0800      	lsrs	r0, r0, #32
 800022c:	0000      	movs	r0, r0
 800022e:	2000      	movs	r0, #0
 8000230:	000c      	movs	r4, r1
 8000232:	2000      	movs	r0, #0
 8000234:	0010      	movs	r0, r2
 8000236:	2000      	movs	r0, #0
 8000238:	1550      	asrs	r0, r2, #21
 800023a:	2000      	movs	r0, #0
 800023c:	e7fe      	b.n	0x800023c
 800023e:	0000      	movs	r0, r0
 8000240:	2208      	movs	r2, #8
 8000242:	4b03      	ldr	r3, [pc, #12]	; (0x8000250)
 8000244:	f8c3 2180 	str.w	r2, [r3, #384]	; 0x180
 8000248:	2200      	movs	r2, #0
 800024a:	4b02      	ldr	r3, [pc, #8]	; (0x8000254)
 800024c:	605a      	str	r2, [r3, #4]
 800024e:	4770      	bx	lr
 8000250:	e100      	b.n	0x8000454
 8000252:	e000      	b.n	0x8000256
 8000254:	2800      	cmp	r0, #0
 8000256:	4000      	ands	r0, r0
 8000258:	4770      	bx	lr
 800025a:	e7fe      	b.n	0x800025a
 800025c:	e7fe      	b.n	0x800025c
 800025e:	e7fe      	b.n	0x800025e
 8000260:	4770      	bx	lr
 8000262:	4770      	bx	lr
 8000264:	4770      	bx	lr
 8000266:	4770      	bx	lr
 8000268:	4770      	bx	lr
 800026a:	0000      	movs	r0, r0
 800026c:	f44f 2280 	mov.w	r2, #262144	; 0x40000
 8000270:	4b01      	ldr	r3, [pc, #4]	; (0x8000278)
 8000272:	615a      	str	r2, [r3, #20]
 8000274:	4770      	bx	lr
 8000276:	bf00      	nop
 8000278:	0400      	lsls	r0, r0, #16
 800027a:	4001      	ands	r1, r0
 800027c:	4770      	bx	lr
 800027e:	be01      	bkpt	0x0001
 8000280:	e7fe      	b.n	0x8000280
 8000282:	0000      	movs	r0, r0
 8000284:	4b0f      	ldr	r3, [pc, #60]	; (0x80002c4)
 8000286:	681a      	ldr	r2, [r3, #0]
 8000288:	f042 0201 	orr.w	r2, r2, #1
 800028c:	601a      	str	r2, [r3, #0]
 800028e:	6859      	ldr	r1, [r3, #4]
 8000290:	4a0d      	ldr	r2, [pc, #52]	; (0x80002c8)
 8000292:	400a      	ands	r2, r1
 8000294:	605a      	str	r2, [r3, #4]
 8000296:	681a      	ldr	r2, [r3, #0]
 8000298:	f022 7284 	bic.w	r2, r2, #17301504	; 0x1080000
 800029c:	f422 3280 	bic.w	r2, r2, #65536	; 0x10000
 80002a0:	601a      	str	r2, [r3, #0]
 80002a2:	681a      	ldr	r2, [r3, #0]
 80002a4:	f422 2280 	bic.w	r2, r2, #262144	; 0x40000
 80002a8:	601a      	str	r2, [r3, #0]
 80002aa:	685a      	ldr	r2, [r3, #4]
 80002ac:	f422 02fe 	bic.w	r2, r2, #8323072	; 0x7f0000
 80002b0:	605a      	str	r2, [r3, #4]
 80002b2:	f44f 021f 	mov.w	r2, #10420224	; 0x9f0000
 80002b6:	609a      	str	r2, [r3, #8]
 80002b8:	f04f 6200 	mov.w	r2, #134217728	; 0x8000000
 80002bc:	4b03      	ldr	r3, [pc, #12]	; (0x80002cc)
 80002be:	609a      	str	r2, [r3, #8]
 80002c0:	4770      	bx	lr
 80002c2:	bf00      	nop
 80002c4:	1000      	asrs	r0, r0, #32
 80002c6:	4002      	ands	r2, r0
 80002c8:	0000      	movs	r0, r0
 80002ca:	f8ff ed00 	ldr??.w	lr, [pc, #3328]	; 0x8000fcc
 80002ce:	e000      	b.n	0x80002d2
 80002d0:	4a11      	ldr	r2, [pc, #68]	; (0x8000318)
 80002d2:	4b12      	ldr	r3, [pc, #72]	; (0x800031c)
 80002d4:	6851      	ldr	r1, [r2, #4]
 80002d6:	f001 010c 	and.w	r1, r1, #12
 80002da:	2904      	cmp	r1, #4
 80002dc:	d001      	beq.n	0x80002e2
 80002de:	2908      	cmp	r1, #8
 80002e0:	d00a      	beq.n	0x80002f8
 80002e2:	490f      	ldr	r1, [pc, #60]	; (0x8000320)
 80002e4:	6019      	str	r1, [r3, #0]
 80002e6:	6852      	ldr	r2, [r2, #4]
 80002e8:	490e      	ldr	r1, [pc, #56]	; (0x8000324)
 80002ea:	f3c2 1203 	ubfx	r2, r2, #4, #4
 80002ee:	5c89      	ldrb	r1, [r1, r2]
 80002f0:	681a      	ldr	r2, [r3, #0]
 80002f2:	40ca      	lsrs	r2, r1
 80002f4:	601a      	str	r2, [r3, #0]
 80002f6:	4770      	bx	lr
 80002f8:	6851      	ldr	r1, [r2, #4]
 80002fa:	6850      	ldr	r0, [r2, #4]
 80002fc:	f3c1 4183 	ubfx	r1, r1, #18, #4
 8000300:	03c0      	lsls	r0, r0, #15
 8000302:	f101 0102 	add.w	r1, r1, #2
 8000306:	d402      	bmi.n	0x800030e
 8000308:	4807      	ldr	r0, [pc, #28]	; (0x8000328)
 800030a:	4341      	muls	r1, r0
 800030c:	e7ea      	b.n	0x80002e4
 800030e:	6850      	ldr	r0, [r2, #4]
 8000310:	0380      	lsls	r0, r0, #14
 8000312:	d4f9      	bmi.n	0x8000308
 8000314:	4802      	ldr	r0, [pc, #8]	; (0x8000320)
 8000316:	e7f8      	b.n	0x800030a
 8000318:	1000      	asrs	r0, r0, #32
 800031a:	4002      	ands	r2, r0
 800031c:	0000      	movs	r0, r0
 800031e:	2000      	movs	r0, #0
 8000320:	1200      	asrs	r0, r0, #8
 8000322:	007a      	lsls	r2, r7, #1
 8000324:	6061      	str	r1, [r4, #4]
 8000326:	0800      	lsrs	r0, r0, #32
 8000328:	0900      	lsrs	r0, r0, #4
 800032a:	003d      	movs	r5, r7
 800032c:	b510      	push	{r4, lr}
 800032e:	201c      	movs	r0, #28
 8000330:	f000 f90a 	bl	0x8000548
 8000334:	4604      	mov	r4, r0
 8000336:	b120      	cbz	r0, 0x8000342
 8000338:	2300      	movs	r3, #0
 800033a:	f840 3b04 	str.w	r3, [r0], #4
 800033e:	f000 f984 	bl	0x800064a
 8000342:	4620      	mov	r0, r4
 8000344:	bd10      	pop	{r4, pc}
 8000346:	0000      	movs	r0, r0
 8000348:	e92d 43f8 	stmdb	sp!, {r3, r4, r5, r6, r7, r8, r9, lr}
 800034c:	4606      	mov	r6, r0
 800034e:	460d      	mov	r5, r1
 8000350:	4699      	mov	r9, r3
 8000352:	4690      	mov	r8, r2
 8000354:	9f08      	ldr	r7, [sp, #32]
 8000356:	f001 f9a9 	bl	0x80016ac
 800035a:	6834      	ldr	r4, [r6, #0]
 800035c:	ea04 0305 	and.w	r3, r4, r5
 8000360:	f1b9 0f00 	cmp.w	r9, #0
 8000364:	d113      	bne.n	0x800038e
 8000366:	b9a3      	cbnz	r3, 0x8000392
 8000368:	b1d7      	cbz	r7, 0x80003a0
 800036a:	f1b8 0f00 	cmp.w	r8, #0
 800036e:	bf0c      	ite	eq
 8000370:	2100      	moveq	r1, #0
 8000372:	f04f 7180 	movne.w	r1, #16777216	; 0x1000000
 8000376:	f1b9 0f00 	cmp.w	r9, #0
 800037a:	d001      	beq.n	0x8000380
 800037c:	f041 6180 	orr.w	r1, r1, #67108864	; 0x4000000
 8000380:	463a      	mov	r2, r7
 8000382:	4329      	orrs	r1, r5
 8000384:	1d30      	adds	r0, r6, #4
 8000386:	f001 fbc1 	bl	0x8001b0c
 800038a:	2400      	movs	r4, #0
 800038c:	e008      	b.n	0x80003a0
 800038e:	429d      	cmp	r5, r3
 8000390:	d1ea      	bne.n	0x8000368
 8000392:	f1b8 0f00 	cmp.w	r8, #0
 8000396:	d002      	beq.n	0x800039e
 8000398:	ea24 0305 	bic.w	r3, r4, r5
 800039c:	6033      	str	r3, [r6, #0]
 800039e:	2700      	movs	r7, #0
 80003a0:	f001 fa2c 	bl	0x80017fc
 80003a4:	b1d7      	cbz	r7, 0x80003dc
 80003a6:	b938      	cbnz	r0, 0x80003b8
 80003a8:	f04f 5280 	mov.w	r2, #268435456	; 0x10000000
 80003ac:	4b11      	ldr	r3, [pc, #68]	; (0x80003f4)
 80003ae:	601a      	str	r2, [r3, #0]
 80003b0:	f3bf 8f4f 	dsb	sy
 80003b4:	f3bf 8f6f 	isb	sy
 80003b8:	f001 fdfe 	bl	0x8001fb8
 80003bc:	0183      	lsls	r3, r0, #6
 80003be:	4604      	mov	r4, r0
 80003c0:	d40a      	bmi.n	0x80003d8
 80003c2:	f000 f9d1 	bl	0x8000768
 80003c6:	6834      	ldr	r4, [r6, #0]
 80003c8:	ea05 0304 	and.w	r3, r5, r4
 80003cc:	f1b9 0f00 	cmp.w	r9, #0
 80003d0:	d107      	bne.n	0x80003e2
 80003d2:	b943      	cbnz	r3, 0x80003e6
 80003d4:	f000 f9d8 	bl	0x8000788
 80003d8:	f024 447f 	bic.w	r4, r4, #4278190080	; 0xff000000
 80003dc:	4620      	mov	r0, r4
 80003de:	e8bd 83f8 	ldmia.w	sp!, {r3, r4, r5, r6, r7, r8, r9, pc}
 80003e2:	429d      	cmp	r5, r3
 80003e4:	d1f6      	bne.n	0x80003d4
 80003e6:	f1b8 0f00 	cmp.w	r8, #0
 80003ea:	d0f3      	beq.n	0x80003d4
 80003ec:	ea24 0505 	bic.w	r5, r4, r5
 80003f0:	6035      	str	r5, [r6, #0]
 80003f2:	e7ef      	b.n	0x80003d4
 80003f4:	ed04 e000 	stc	0, cr14, [r4, #-0]
 80003f8:	b570      	push	{r4, r5, r6, lr}
 80003fa:	4606      	mov	r6, r0
 80003fc:	460c      	mov	r4, r1
 80003fe:	f000 f9b3 	bl	0x8000768
 8000402:	6835      	ldr	r5, [r6, #0]
 8000404:	ea25 0404 	bic.w	r4, r5, r4
 8000408:	6034      	str	r4, [r6, #0]
 800040a:	f000 f9bd 	bl	0x8000788
 800040e:	4628      	mov	r0, r5
 8000410:	bd70      	pop	{r4, r5, r6, pc}
 8000412:	f3ef 8311 	mrs	r3, BASEPRI
 8000416:	f04f 02bf 	mov.w	r2, #191	; 0xbf
 800041a:	f382 8811 	msr	BASEPRI, r2
 800041e:	f3bf 8f6f 	isb	sy
 8000422:	f3bf 8f4f 	dsb	sy
 8000426:	6800      	ldr	r0, [r0, #0]
 8000428:	f383 8811 	msr	BASEPRI, r3
 800042c:	4770      	bx	lr
 800042e:	b5f8      	push	{r3, r4, r5, r6, r7, lr}
 8000430:	4604      	mov	r4, r0
 8000432:	460d      	mov	r5, r1
 8000434:	f100 060c 	add.w	r6, r0, #12
 8000438:	f001 f938 	bl	0x80016ac
 800043c:	6823      	ldr	r3, [r4, #0]
 800043e:	6920      	ldr	r0, [r4, #16]
 8000440:	432b      	orrs	r3, r5
 8000442:	2500      	movs	r5, #0
 8000444:	6023      	str	r3, [r4, #0]
 8000446:	42b0      	cmp	r0, r6
 8000448:	6821      	ldr	r1, [r4, #0]
 800044a:	d106      	bne.n	0x800045a
 800044c:	ea21 0105 	bic.w	r1, r1, r5
 8000450:	6021      	str	r1, [r4, #0]
 8000452:	f001 f9d3 	bl	0x80017fc
 8000456:	6820      	ldr	r0, [r4, #0]
 8000458:	bdf8      	pop	{r3, r4, r5, r6, r7, pc}
 800045a:	e890 0088 	ldmia.w	r0, {r3, r7}
 800045e:	f013 6f80 	tst.w	r3, #67108864	; 0x4000000
 8000462:	f023 427f 	bic.w	r2, r3, #4278190080	; 0xff000000
 8000466:	d103      	bne.n	0x8000470
 8000468:	420a      	tst	r2, r1
 800046a:	d104      	bne.n	0x8000476
 800046c:	4638      	mov	r0, r7
 800046e:	e7ea      	b.n	0x8000446
 8000470:	ea32 0e01 	bics.w	lr, r2, r1
 8000474:	d1fa      	bne.n	0x800046c
 8000476:	01db      	lsls	r3, r3, #7
 8000478:	d500      	bpl.n	0x800047c
 800047a:	4315      	orrs	r5, r2
 800047c:	f041 7100 	orr.w	r1, r1, #33554432	; 0x2000000
 8000480:	f001 fb90 	bl	0x8001ba4
 8000484:	e7f2      	b.n	0x800046c
 8000486:	0000      	movs	r0, r0
 8000488:	e92d 41f0 	stmdb	sp!, {r4, r5, r6, r7, r8, lr}
 800048c:	4605      	mov	r5, r0
 800048e:	4688      	mov	r8, r1
 8000490:	4616      	mov	r6, r2
 8000492:	461f      	mov	r7, r3
 8000494:	f001 f90a 	bl	0x80016ac
 8000498:	682c      	ldr	r4, [r5, #0]
 800049a:	4641      	mov	r1, r8
 800049c:	4628      	mov	r0, r5
 800049e:	ea44 0408 	orr.w	r4, r4, r8
 80004a2:	f7ff ffc4 	bl	0x800042e
 80004a6:	ea36 0304 	bics.w	r3, r6, r4
 80004aa:	d125      	bne.n	0x80004f8
 80004ac:	2700      	movs	r7, #0
 80004ae:	682b      	ldr	r3, [r5, #0]
 80004b0:	ea23 0306 	bic.w	r3, r3, r6
 80004b4:	602b      	str	r3, [r5, #0]
 80004b6:	f001 f9a1 	bl	0x80017fc
 80004ba:	b1d7      	cbz	r7, 0x80004f2
 80004bc:	b938      	cbnz	r0, 0x80004ce
 80004be:	f04f 5280 	mov.w	r2, #268435456	; 0x10000000
 80004c2:	4b13      	ldr	r3, [pc, #76]	; (0x8000510)
 80004c4:	601a      	str	r2, [r3, #0]
 80004c6:	f3bf 8f4f 	dsb	sy
 80004ca:	f3bf 8f6f 	isb	sy
 80004ce:	f001 fd73 	bl	0x8001fb8
 80004d2:	0183      	lsls	r3, r0, #6
 80004d4:	4604      	mov	r4, r0
 80004d6:	d40a      	bmi.n	0x80004ee
 80004d8:	f000 f946 	bl	0x8000768
 80004dc:	682c      	ldr	r4, [r5, #0]
 80004de:	ea36 0304 	bics.w	r3, r6, r4
 80004e2:	bf04      	itt	eq
 80004e4:	ea24 0606 	biceq.w	r6, r4, r6
 80004e8:	602e      	streq	r6, [r5, #0]
 80004ea:	f000 f94d 	bl	0x8000788
 80004ee:	f024 447f 	bic.w	r4, r4, #4278190080	; 0xff000000
 80004f2:	4620      	mov	r0, r4
 80004f4:	e8bd 81f0 	ldmia.w	sp!, {r4, r5, r6, r7, r8, pc}
 80004f8:	b13f      	cbz	r7, 0x800050a
 80004fa:	463a      	mov	r2, r7
 80004fc:	f046 61a0 	orr.w	r1, r6, #83886080	; 0x5000000
 8000500:	1d28      	adds	r0, r5, #4
 8000502:	f001 fb03 	bl	0x8001b0c
 8000506:	2400      	movs	r4, #0
 8000508:	e7d5      	b.n	0x80004b6
 800050a:	682c      	ldr	r4, [r5, #0]
 800050c:	e7d3      	b.n	0x80004b6
 800050e:	bf00      	nop
 8000510:	ed04 e000 	stc	0, cr14, [r4, #-0]
 8000514:	b510      	push	{r4, lr}
 8000516:	4604      	mov	r4, r0
 8000518:	f001 f8c8 	bl	0x80016ac
 800051c:	6863      	ldr	r3, [r4, #4]
 800051e:	b933      	cbnz	r3, 0x800052e
 8000520:	4620      	mov	r0, r4
 8000522:	f000 f86b 	bl	0x80005fc
 8000526:	e8bd 4010 	ldmia.w	sp!, {r4, lr}
 800052a:	f001 b967 	b.w	0x80017fc
 800052e:	f04f 7100 	mov.w	r1, #33554432	; 0x2000000
 8000532:	6920      	ldr	r0, [r4, #16]
 8000534:	f001 fb36 	bl	0x8001ba4
 8000538:	e7f0      	b.n	0x800051c
 800053a:	f7ff bf78 	b.w	0x800042e
 800053e:	f7ff bf5b 	b.w	0x80003f8
 8000542:	b100      	cbz	r0, 0x8000546
 8000544:	6980      	ldr	r0, [r0, #24]
 8000546:	4770      	bx	lr
 8000548:	b570      	push	{r4, r5, r6, lr}
 800054a:	4604      	mov	r4, r0
 800054c:	f001 f8ae 	bl	0x80016ac
 8000550:	4825      	ldr	r0, [pc, #148]	; (0x80005e8)
 8000552:	6801      	ldr	r1, [r0, #0]
 8000554:	b971      	cbnz	r1, 0x8000574
 8000556:	f241 35f8 	movw	r5, #5112	; 0x13f8
 800055a:	4b24      	ldr	r3, [pc, #144]	; (0x80005ec)
 800055c:	4a24      	ldr	r2, [pc, #144]	; (0x80005f0)
 800055e:	f023 0307 	bic.w	r3, r3, #7
 8000562:	6013      	str	r3, [r2, #0]
 8000564:	6051      	str	r1, [r2, #4]
 8000566:	4a23      	ldr	r2, [pc, #140]	; (0x80005f4)
 8000568:	e883 0024 	stmia.w	r3, {r2, r5}
 800056c:	2301      	movs	r3, #1
 800056e:	e882 0022 	stmia.w	r2, {r1, r5}
 8000572:	6003      	str	r3, [r0, #0]
 8000574:	b12c      	cbz	r4, 0x8000582
 8000576:	3408      	adds	r4, #8
 8000578:	0763      	lsls	r3, r4, #29
 800057a:	bf1c      	itt	ne
 800057c:	f024 0407 	bicne.w	r4, r4, #7
 8000580:	3408      	addne	r4, #8
 8000582:	f241 33f6 	movw	r3, #5110	; 0x13f6
 8000586:	1e62      	subs	r2, r4, #1
 8000588:	429a      	cmp	r2, r3
 800058a:	d807      	bhi.n	0x800059c
 800058c:	4a18      	ldr	r2, [pc, #96]	; (0x80005f0)
 800058e:	6813      	ldr	r3, [r2, #0]
 8000590:	6859      	ldr	r1, [r3, #4]
 8000592:	428c      	cmp	r4, r1
 8000594:	d804      	bhi.n	0x80005a0
 8000596:	4817      	ldr	r0, [pc, #92]	; (0x80005f4)
 8000598:	4283      	cmp	r3, r0
 800059a:	d107      	bne.n	0x80005ac
 800059c:	2500      	movs	r5, #0
 800059e:	e01d      	b.n	0x80005dc
 80005a0:	6818      	ldr	r0, [r3, #0]
 80005a2:	2800      	cmp	r0, #0
 80005a4:	d0f7      	beq.n	0x8000596
 80005a6:	461a      	mov	r2, r3
 80005a8:	4603      	mov	r3, r0
 80005aa:	e7f1      	b.n	0x8000590
 80005ac:	6818      	ldr	r0, [r3, #0]
 80005ae:	6815      	ldr	r5, [r2, #0]
 80005b0:	6010      	str	r0, [r2, #0]
 80005b2:	1b0a      	subs	r2, r1, r4
 80005b4:	2a10      	cmp	r2, #16
 80005b6:	f105 0508 	add.w	r5, r5, #8
 80005ba:	d90a      	bls.n	0x80005d2
 80005bc:	1919      	adds	r1, r3, r4
 80005be:	604a      	str	r2, [r1, #4]
 80005c0:	605c      	str	r4, [r3, #4]
 80005c2:	684e      	ldr	r6, [r1, #4]
 80005c4:	4a0a      	ldr	r2, [pc, #40]	; (0x80005f0)
 80005c6:	6810      	ldr	r0, [r2, #0]
 80005c8:	6844      	ldr	r4, [r0, #4]
 80005ca:	42a6      	cmp	r6, r4
 80005cc:	d80a      	bhi.n	0x80005e4
 80005ce:	6008      	str	r0, [r1, #0]
 80005d0:	6011      	str	r1, [r2, #0]
 80005d2:	4909      	ldr	r1, [pc, #36]	; (0x80005f8)
 80005d4:	685b      	ldr	r3, [r3, #4]
 80005d6:	680a      	ldr	r2, [r1, #0]
 80005d8:	1ad2      	subs	r2, r2, r3
 80005da:	600a      	str	r2, [r1, #0]
 80005dc:	f001 f90e 	bl	0x80017fc
 80005e0:	4628      	mov	r0, r5
 80005e2:	bd70      	pop	{r4, r5, r6, pc}
 80005e4:	4602      	mov	r2, r0
 80005e6:	e7ee      	b.n	0x80005c6
 80005e8:	1418      	asrs	r0, r3, #16
 80005ea:	2000      	movs	r0, #0
 80005ec:	0018      	movs	r0, r3
 80005ee:	2000      	movs	r0, #0
 80005f0:	141c      	asrs	r4, r3, #16
 80005f2:	2000      	movs	r0, #0
 80005f4:	1410      	asrs	r0, r2, #16
 80005f6:	2000      	movs	r0, #0
 80005f8:	0004      	movs	r4, r0
 80005fa:	2000      	movs	r0, #0
 80005fc:	b538      	push	{r3, r4, r5, lr}
 80005fe:	4604      	mov	r4, r0
 8000600:	b1b8      	cbz	r0, 0x8000632
 8000602:	f1a0 0508 	sub.w	r5, r0, #8
 8000606:	f001 f851 	bl	0x80016ac
 800060a:	f854 0c04 	ldr.w	r0, [r4, #-4]
 800060e:	4a09      	ldr	r2, [pc, #36]	; (0x8000634)
 8000610:	6811      	ldr	r1, [r2, #0]
 8000612:	684b      	ldr	r3, [r1, #4]
 8000614:	4298      	cmp	r0, r3
 8000616:	d80a      	bhi.n	0x800062e
 8000618:	f844 1c08 	str.w	r1, [r4, #-8]
 800061c:	6015      	str	r5, [r2, #0]
 800061e:	4a06      	ldr	r2, [pc, #24]	; (0x8000638)
 8000620:	6813      	ldr	r3, [r2, #0]
 8000622:	4403      	add	r3, r0
 8000624:	6013      	str	r3, [r2, #0]
 8000626:	e8bd 4038 	ldmia.w	sp!, {r3, r4, r5, lr}
 800062a:	f001 b8e7 	b.w	0x80017fc
 800062e:	460a      	mov	r2, r1
 8000630:	e7ee      	b.n	0x8000610
 8000632:	bd38      	pop	{r3, r4, r5, pc}
 8000634:	141c      	asrs	r4, r3, #16
 8000636:	2000      	movs	r0, #0
 8000638:	0004      	movs	r4, r0
 800063a:	2000      	movs	r0, #0
 800063c:	4b01      	ldr	r3, [pc, #4]	; (0x8000644)
 800063e:	6818      	ldr	r0, [r3, #0]
 8000640:	4770      	bx	lr
 8000642:	bf00      	nop
 8000644:	0004      	movs	r4, r0
 8000646:	2000      	movs	r0, #0
 8000648:	4770      	bx	lr
 800064a:	f100 0308 	add.w	r3, r0, #8
 800064e:	6043      	str	r3, [r0, #4]
 8000650:	f04f 32ff 	mov.w	r2, #4294967295	; 0xffffffff
 8000654:	60c3      	str	r3, [r0, #12]
 8000656:	6103      	str	r3, [r0, #16]
 8000658:	2300      	movs	r3, #0
 800065a:	6082      	str	r2, [r0, #8]
 800065c:	6003      	str	r3, [r0, #0]
 800065e:	4770      	bx	lr
 8000660:	2300      	movs	r3, #0
 8000662:	6103      	str	r3, [r0, #16]
 8000664:	4770      	bx	lr
 8000666:	6843      	ldr	r3, [r0, #4]
 8000668:	689a      	ldr	r2, [r3, #8]
 800066a:	604b      	str	r3, [r1, #4]
 800066c:	608a      	str	r2, [r1, #8]
 800066e:	689a      	ldr	r2, [r3, #8]
 8000670:	6051      	str	r1, [r2, #4]
 8000672:	6099      	str	r1, [r3, #8]
 8000674:	6803      	ldr	r3, [r0, #0]
 8000676:	6108      	str	r0, [r1, #16]
 8000678:	3301      	adds	r3, #1
 800067a:	6003      	str	r3, [r0, #0]
 800067c:	4770      	bx	lr
 800067e:	680a      	ldr	r2, [r1, #0]
 8000680:	b530      	push	{r4, r5, lr}
 8000682:	1c53      	adds	r3, r2, #1
 8000684:	d10a      	bne.n	0x800069c
 8000686:	6903      	ldr	r3, [r0, #16]
 8000688:	685a      	ldr	r2, [r3, #4]
 800068a:	604a      	str	r2, [r1, #4]
 800068c:	6091      	str	r1, [r2, #8]
 800068e:	608b      	str	r3, [r1, #8]
 8000690:	6059      	str	r1, [r3, #4]
 8000692:	6803      	ldr	r3, [r0, #0]
 8000694:	6108      	str	r0, [r1, #16]
 8000696:	3301      	adds	r3, #1
 8000698:	6003      	str	r3, [r0, #0]
 800069a:	bd30      	pop	{r4, r5, pc}
 800069c:	f100 0308 	add.w	r3, r0, #8
 80006a0:	685c      	ldr	r4, [r3, #4]
 80006a2:	6825      	ldr	r5, [r4, #0]
 80006a4:	42aa      	cmp	r2, r5
 80006a6:	d3ef      	bcc.n	0x8000688
 80006a8:	4623      	mov	r3, r4
 80006aa:	e7f9      	b.n	0x80006a0
 80006ac:	6841      	ldr	r1, [r0, #4]
 80006ae:	6882      	ldr	r2, [r0, #8]
 80006b0:	6903      	ldr	r3, [r0, #16]
 80006b2:	608a      	str	r2, [r1, #8]
 80006b4:	6882      	ldr	r2, [r0, #8]
 80006b6:	6051      	str	r1, [r2, #4]
 80006b8:	6859      	ldr	r1, [r3, #4]
 80006ba:	4288      	cmp	r0, r1
 80006bc:	bf08      	it	eq
 80006be:	605a      	streq	r2, [r3, #4]
 80006c0:	2200      	movs	r2, #0
 80006c2:	6102      	str	r2, [r0, #16]
 80006c4:	681a      	ldr	r2, [r3, #0]
 80006c6:	3a01      	subs	r2, #1
 80006c8:	601a      	str	r2, [r3, #0]
 80006ca:	6818      	ldr	r0, [r3, #0]
 80006cc:	4770      	bx	lr
 80006ce:	2300      	movs	r3, #0
 80006d0:	b082      	sub	sp, #8
 80006d2:	9301      	str	r3, [sp, #4]
 80006d4:	f04f 03bf 	mov.w	r3, #191	; 0xbf
 80006d8:	f383 8811 	msr	BASEPRI, r3
 80006dc:	f3bf 8f6f 	isb	sy
 80006e0:	f3bf 8f4f 	dsb	sy
 80006e4:	9b01      	ldr	r3, [sp, #4]
 80006e6:	2b00      	cmp	r3, #0
 80006e8:	d0fc      	beq.n	0x80006e4
 80006ea:	b002      	add	sp, #8
 80006ec:	4770      	bx	lr
 80006ee:	0000      	movs	r0, r0
 80006f0:	4806      	ldr	r0, [pc, #24]	; (0x800070c)
 80006f2:	6800      	ldr	r0, [r0, #0]
 80006f4:	6800      	ldr	r0, [r0, #0]
 80006f6:	f380 8808 	msr	MSP, r0
 80006fa:	b662      	cpsie	i
 80006fc:	b661      	cpsie	f
 80006fe:	f3bf 8f4f 	dsb	sy
 8000702:	f3bf 8f6f 	isb	sy
 8000706:	df00      	svc	0
 8000708:	bf00      	nop
 800070a:	0000      	movs	r0, r0
 800070c:	ed08 e000 	stc	0, cr14, [r8, #-0]
 8000710:	f04f 7380 	mov.w	r3, #16777216	; 0x1000000
 8000714:	f840 3c04 	str.w	r3, [r0, #-4]
 8000718:	4b05      	ldr	r3, [pc, #20]	; (0x8000730)
 800071a:	f021 0101 	bic.w	r1, r1, #1
 800071e:	f840 1c08 	str.w	r1, [r0, #-8]
 8000722:	f840 3c0c 	str.w	r3, [r0, #-12]
 8000726:	f840 2c20 	str.w	r2, [r0, #-32]
 800072a:	3840      	subs	r0, #64	; 0x40
 800072c:	4770      	bx	lr
 800072e:	bf00      	nop
 8000730:	06cf      	lsls	r7, r1, #27
 8000732:	0800      	lsrs	r0, r0, #32
	...
 8000740:	4b07      	ldr	r3, [pc, #28]	; (0x8000760)
 8000742:	6819      	ldr	r1, [r3, #0]
 8000744:	6808      	ldr	r0, [r1, #0]
 8000746:	e8b0 0ff0 	ldmia.w	r0!, {r4, r5, r6, r7, r8, r9, sl, fp}
 800074a:	f380 8809 	msr	PSP, r0
 800074e:	f3bf 8f6f 	isb	sy
 8000752:	f04f 0000 	mov.w	r0, #0
 8000756:	f380 8811 	msr	BASEPRI, r0
 800075a:	f04e 0e0d 	orr.w	lr, lr, #13
 800075e:	4770      	bx	lr
 8000760:	1424      	asrs	r4, r4, #16
 8000762:	2000      	movs	r0, #0
 8000764:	4770      	bx	lr
 8000766:	0000      	movs	r0, r0
 8000768:	f04f 03bf 	mov.w	r3, #191	; 0xbf
 800076c:	f383 8811 	msr	BASEPRI, r3
 8000770:	f3bf 8f6f 	isb	sy
 8000774:	f3bf 8f4f 	dsb	sy
 8000778:	4a02      	ldr	r2, [pc, #8]	; (0x8000784)
 800077a:	6813      	ldr	r3, [r2, #0]
 800077c:	3301      	adds	r3, #1
 800077e:	6013      	str	r3, [r2, #0]
 8000780:	4770      	bx	lr
 8000782:	bf00      	nop
 8000784:	0008      	movs	r0, r1
 8000786:	2000      	movs	r0, #0
 8000788:	4a03      	ldr	r2, [pc, #12]	; (0x8000798)
 800078a:	6813      	ldr	r3, [r2, #0]
 800078c:	3b01      	subs	r3, #1
 800078e:	6013      	str	r3, [r2, #0]
 8000790:	b90b      	cbnz	r3, 0x8000796
 8000792:	f383 8811 	msr	BASEPRI, r3
 8000796:	4770      	bx	lr
 8000798:	0008      	movs	r0, r1
 800079a:	2000      	movs	r0, #0
 800079c:	0000      	movs	r0, r0
 800079e:	0000      	movs	r0, r0
 80007a0:	f3ef 8009 	mrs	r0, PSP
 80007a4:	f3bf 8f6f 	isb	sy
 80007a8:	4b0d      	ldr	r3, [pc, #52]	; (0x80007e0)
 80007aa:	681a      	ldr	r2, [r3, #0]
 80007ac:	e920 0ff0 	stmdb	r0!, {r4, r5, r6, r7, r8, r9, sl, fp}
 80007b0:	6010      	str	r0, [r2, #0]
 80007b2:	e92d 4008 	stmdb	sp!, {r3, lr}
 80007b6:	f04f 00bf 	mov.w	r0, #191	; 0xbf
 80007ba:	f380 8811 	msr	BASEPRI, r0
 80007be:	f001 f907 	bl	0x80019d0
 80007c2:	f04f 0000 	mov.w	r0, #0
 80007c6:	f380 8811 	msr	BASEPRI, r0
 80007ca:	e8bd 4008 	ldmia.w	sp!, {r3, lr}
 80007ce:	6819      	ldr	r1, [r3, #0]
 80007d0:	6808      	ldr	r0, [r1, #0]
 80007d2:	e8b0 0ff0 	ldmia.w	r0!, {r4, r5, r6, r7, r8, r9, sl, fp}
 80007d6:	f380 8809 	msr	PSP, r0
 80007da:	f3bf 8f6f 	isb	sy
 80007de:	4770      	bx	lr
 80007e0:	1424      	asrs	r4, r4, #16
 80007e2:	2000      	movs	r0, #0
 80007e4:	b508      	push	{r3, lr}
 80007e6:	f04f 03bf 	mov.w	r3, #191	; 0xbf
 80007ea:	f383 8811 	msr	BASEPRI, r3
 80007ee:	f3bf 8f6f 	isb	sy
 80007f2:	f3bf 8f4f 	dsb	sy
 80007f6:	f000 ff7b 	bl	0x80016f0
 80007fa:	b118      	cbz	r0, 0x8000804
 80007fc:	f04f 5280 	mov.w	r2, #268435456	; 0x10000000
 8000800:	4b02      	ldr	r3, [pc, #8]	; (0x800080c)
 8000802:	601a      	str	r2, [r3, #0]
 8000804:	2300      	movs	r3, #0
 8000806:	f383 8811 	msr	BASEPRI, r3
 800080a:	bd08      	pop	{r3, pc}
 800080c:	ed04 e000 	stc	0, cr14, [r4, #-0]
 8000810:	2200      	movs	r2, #0
 8000812:	4b05      	ldr	r3, [pc, #20]	; (0x8000828)
 8000814:	4905      	ldr	r1, [pc, #20]	; (0x800082c)
 8000816:	601a      	str	r2, [r3, #0]
 8000818:	600a      	str	r2, [r1, #0]
 800081a:	4a05      	ldr	r2, [pc, #20]	; (0x8000830)
 800081c:	4905      	ldr	r1, [pc, #20]	; (0x8000834)
 800081e:	6011      	str	r1, [r2, #0]
 8000820:	2207      	movs	r2, #7
 8000822:	601a      	str	r2, [r3, #0]
 8000824:	4770      	bx	lr
 8000826:	bf00      	nop
 8000828:	e010      	b.n	0x800084c
 800082a:	e000      	b.n	0x800082e
 800082c:	e018      	b.n	0x8000860
 800082e:	e000      	b.n	0x8000832
 8000830:	e014      	b.n	0x800085c
 8000832:	e000      	b.n	0x8000836
 8000834:	fc7f 000a 	ldc2l	0, cr0, [pc], #-40	; 0x8000810
 8000838:	b510      	push	{r4, lr}
 800083a:	2400      	movs	r4, #0
 800083c:	4b0a      	ldr	r3, [pc, #40]	; (0x8000868)
 800083e:	681a      	ldr	r2, [r3, #0]
 8000840:	f442 027f 	orr.w	r2, r2, #16711680	; 0xff0000
 8000844:	601a      	str	r2, [r3, #0]
 8000846:	681a      	ldr	r2, [r3, #0]
 8000848:	f042 427f 	orr.w	r2, r2, #4278190080	; 0xff000000
 800084c:	601a      	str	r2, [r3, #0]
 800084e:	f7ff ffdf 	bl	0x8000810
 8000852:	4b06      	ldr	r3, [pc, #24]	; (0x800086c)
 8000854:	601c      	str	r4, [r3, #0]
 8000856:	f7ff ff4b 	bl	0x80006f0
 800085a:	f001 f8b9 	bl	0x80019d0
 800085e:	f7ff ff36 	bl	0x80006ce
 8000862:	4620      	mov	r0, r4
 8000864:	bd10      	pop	{r4, pc}
 8000866:	bf00      	nop
 8000868:	ed20 e000 	stc	0, cr14, [r0, #-0]
 800086c:	0008      	movs	r0, r1
 800086e:	2000      	movs	r0, #0
 8000870:	b510      	push	{r4, lr}
 8000872:	4604      	mov	r4, r0
 8000874:	f7ff ff78 	bl	0x8000768
 8000878:	6ba4      	ldr	r4, [r4, #56]	; 0x38
 800087a:	f7ff ff85 	bl	0x8000788
 800087e:	fab4 f084 	clz	r0, r4
 8000882:	0940      	lsrs	r0, r0, #5
 8000884:	bd10      	pop	{r4, pc}
 8000886:	b570      	push	{r4, r5, r6, lr}
 8000888:	4615      	mov	r5, r2
 800088a:	6c02      	ldr	r2, [r0, #64]	; 0x40
 800088c:	4604      	mov	r4, r0
 800088e:	6b86      	ldr	r6, [r0, #56]	; 0x38
 8000890:	b942      	cbnz	r2, 0x80008a4
 8000892:	6805      	ldr	r5, [r0, #0]
 8000894:	b99d      	cbnz	r5, 0x80008be
 8000896:	6840      	ldr	r0, [r0, #4]
 8000898:	f001 fb18 	bl	0x8001ecc
 800089c:	6065      	str	r5, [r4, #4]
 800089e:	3601      	adds	r6, #1
 80008a0:	63a6      	str	r6, [r4, #56]	; 0x38
 80008a2:	bd70      	pop	{r4, r5, r6, pc}
 80008a4:	b96d      	cbnz	r5, 0x80008c2
 80008a6:	6880      	ldr	r0, [r0, #8]
 80008a8:	f005 fbb3 	bl	0x8006012
 80008ac:	68a3      	ldr	r3, [r4, #8]
 80008ae:	6c22      	ldr	r2, [r4, #64]	; 0x40
 80008b0:	4413      	add	r3, r2
 80008b2:	6862      	ldr	r2, [r4, #4]
 80008b4:	60a3      	str	r3, [r4, #8]
 80008b6:	4293      	cmp	r3, r2
 80008b8:	d301      	bcc.n	0x80008be
 80008ba:	6823      	ldr	r3, [r4, #0]
 80008bc:	60a3      	str	r3, [r4, #8]
 80008be:	2000      	movs	r0, #0
 80008c0:	e7ed      	b.n	0x800089e
 80008c2:	68c0      	ldr	r0, [r0, #12]
 80008c4:	f005 fba5 	bl	0x8006012
 80008c8:	6c23      	ldr	r3, [r4, #64]	; 0x40
 80008ca:	68e2      	ldr	r2, [r4, #12]
 80008cc:	425b      	negs	r3, r3
 80008ce:	6821      	ldr	r1, [r4, #0]
 80008d0:	441a      	add	r2, r3
 80008d2:	428a      	cmp	r2, r1
 80008d4:	60e2      	str	r2, [r4, #12]
 80008d6:	bf3e      	ittt	cc
 80008d8:	6862      	ldrcc	r2, [r4, #4]
 80008da:	189b      	addcc	r3, r3, r2
 80008dc:	60e3      	strcc	r3, [r4, #12]
 80008de:	2d02      	cmp	r5, #2
 80008e0:	d1ed      	bne.n	0x80008be
 80008e2:	b10e      	cbz	r6, 0x80008e8
 80008e4:	3e01      	subs	r6, #1
 80008e6:	e7ea      	b.n	0x80008be
 80008e8:	4630      	mov	r0, r6
 80008ea:	e7d8      	b.n	0x800089e
 80008ec:	4603      	mov	r3, r0
 80008ee:	6c1a      	ldr	r2, [r3, #64]	; 0x40
 80008f0:	b410      	push	{r4}
 80008f2:	4608      	mov	r0, r1
 80008f4:	b162      	cbz	r2, 0x8000910
 80008f6:	68d9      	ldr	r1, [r3, #12]
 80008f8:	685c      	ldr	r4, [r3, #4]
 80008fa:	4411      	add	r1, r2
 80008fc:	42a1      	cmp	r1, r4
 80008fe:	60d9      	str	r1, [r3, #12]
 8000900:	bf28      	it	cs
 8000902:	6819      	ldrcs	r1, [r3, #0]
 8000904:	bc10      	pop	{r4}
 8000906:	bf28      	it	cs
 8000908:	60d9      	strcs	r1, [r3, #12]
 800090a:	68d9      	ldr	r1, [r3, #12]
 800090c:	f005 bb81 	b.w	0x8006012
 8000910:	bc10      	pop	{r4}
 8000912:	4770      	bx	lr
 8000914:	b570      	push	{r4, r5, r6, lr}
 8000916:	4604      	mov	r4, r0
 8000918:	f7ff ff26 	bl	0x8000768
 800091c:	f894 5045 	ldrb.w	r5, [r4, #69]	; 0x45
 8000920:	f104 0624 	add.w	r6, r4, #36	; 0x24
 8000924:	b26d      	sxtb	r5, r5
 8000926:	2d00      	cmp	r5, #0
 8000928:	dc14      	bgt.n	0x8000954
 800092a:	23ff      	movs	r3, #255	; 0xff
 800092c:	f884 3045 	strb.w	r3, [r4, #69]	; 0x45
 8000930:	f7ff ff2a 	bl	0x8000788
 8000934:	f7ff ff18 	bl	0x8000768
 8000938:	f894 5044 	ldrb.w	r5, [r4, #68]	; 0x44
 800093c:	f104 0610 	add.w	r6, r4, #16
 8000940:	b26d      	sxtb	r5, r5
 8000942:	2d00      	cmp	r5, #0
 8000944:	dc12      	bgt.n	0x800096c
 8000946:	23ff      	movs	r3, #255	; 0xff
 8000948:	f884 3044 	strb.w	r3, [r4, #68]	; 0x44
 800094c:	e8bd 4070 	ldmia.w	sp!, {r4, r5, r6, lr}
 8000950:	f7ff bf1a 	b.w	0x8000788
 8000954:	6a63      	ldr	r3, [r4, #36]	; 0x24
 8000956:	2b00      	cmp	r3, #0
 8000958:	d0e7      	beq.n	0x800092a
 800095a:	4630      	mov	r0, r6
 800095c:	f001 f8ea 	bl	0x8001b34
 8000960:	b108      	cbz	r0, 0x8000966
 8000962:	f001 f98f 	bl	0x8001c84
 8000966:	3d01      	subs	r5, #1
 8000968:	b26d      	sxtb	r5, r5
 800096a:	e7dc      	b.n	0x8000926
 800096c:	6923      	ldr	r3, [r4, #16]
 800096e:	2b00      	cmp	r3, #0
 8000970:	d0e9      	beq.n	0x8000946
 8000972:	4630      	mov	r0, r6
 8000974:	f001 f8de 	bl	0x8001b34
 8000978:	b108      	cbz	r0, 0x800097e
 800097a:	f001 f983 	bl	0x8001c84
 800097e:	3d01      	subs	r5, #1
 8000980:	b26d      	sxtb	r5, r5
 8000982:	e7de      	b.n	0x8000942
 8000984:	b538      	push	{r3, r4, r5, lr}
 8000986:	4604      	mov	r4, r0
 8000988:	460d      	mov	r5, r1
 800098a:	f7ff feed 	bl	0x8000768
 800098e:	6c20      	ldr	r0, [r4, #64]	; 0x40
 8000990:	6be3      	ldr	r3, [r4, #60]	; 0x3c
 8000992:	6822      	ldr	r2, [r4, #0]
 8000994:	4343      	muls	r3, r0
 8000996:	18d1      	adds	r1, r2, r3
 8000998:	1a1b      	subs	r3, r3, r0
 800099a:	4413      	add	r3, r2
 800099c:	6061      	str	r1, [r4, #4]
 800099e:	60e3      	str	r3, [r4, #12]
 80009a0:	2100      	movs	r1, #0
 80009a2:	23ff      	movs	r3, #255	; 0xff
 80009a4:	63a1      	str	r1, [r4, #56]	; 0x38
 80009a6:	60a2      	str	r2, [r4, #8]
 80009a8:	f884 3044 	strb.w	r3, [r4, #68]	; 0x44
 80009ac:	f884 3045 	strb.w	r3, [r4, #69]	; 0x45
 80009b0:	b995      	cbnz	r5, 0x80009d8
 80009b2:	6923      	ldr	r3, [r4, #16]
 80009b4:	b163      	cbz	r3, 0x80009d0
 80009b6:	f104 0010 	add.w	r0, r4, #16
 80009ba:	f001 f8bb 	bl	0x8001b34
 80009be:	b138      	cbz	r0, 0x80009d0
 80009c0:	f04f 5280 	mov.w	r2, #268435456	; 0x10000000
 80009c4:	4b09      	ldr	r3, [pc, #36]	; (0x80009ec)
 80009c6:	601a      	str	r2, [r3, #0]
 80009c8:	f3bf 8f4f 	dsb	sy
 80009cc:	f3bf 8f6f 	isb	sy
 80009d0:	f7ff feda 	bl	0x8000788
 80009d4:	2001      	movs	r0, #1
 80009d6:	bd38      	pop	{r3, r4, r5, pc}
 80009d8:	f104 0010 	add.w	r0, r4, #16
 80009dc:	f7ff fe35 	bl	0x800064a
 80009e0:	f104 0024 	add.w	r0, r4, #36	; 0x24
 80009e4:	f7ff fe31 	bl	0x800064a
 80009e8:	e7f2      	b.n	0x80009d0
 80009ea:	bf00      	nop
 80009ec:	ed04 e000 	stc	0, cr14, [r4, #-0]
 80009f0:	b5f8      	push	{r3, r4, r5, r6, r7, lr}
 80009f2:	4606      	mov	r6, r0
 80009f4:	4348      	muls	r0, r1
 80009f6:	3050      	adds	r0, #80	; 0x50
 80009f8:	460d      	mov	r5, r1
 80009fa:	4617      	mov	r7, r2
 80009fc:	f7ff fda4 	bl	0x8000548
 8000a00:	4604      	mov	r4, r0
 8000a02:	b148      	cbz	r0, 0x8000a18
 8000a04:	b955      	cbnz	r5, 0x8000a1c
 8000a06:	6020      	str	r0, [r4, #0]
 8000a08:	63e6      	str	r6, [r4, #60]	; 0x3c
 8000a0a:	6425      	str	r5, [r4, #64]	; 0x40
 8000a0c:	2101      	movs	r1, #1
 8000a0e:	4620      	mov	r0, r4
 8000a10:	f7ff ffb8 	bl	0x8000984
 8000a14:	f884 704c 	strb.w	r7, [r4, #76]	; 0x4c
 8000a18:	4620      	mov	r0, r4
 8000a1a:	bdf8      	pop	{r3, r4, r5, r6, r7, pc}
 8000a1c:	f100 0350 	add.w	r3, r0, #80	; 0x50
 8000a20:	6003      	str	r3, [r0, #0]
 8000a22:	e7f1      	b.n	0x8000a08
 8000a24:	b510      	push	{r4, lr}
 8000a26:	2202      	movs	r2, #2
 8000a28:	460c      	mov	r4, r1
 8000a2a:	2100      	movs	r1, #0
 8000a2c:	f7ff ffe0 	bl	0x80009f0
 8000a30:	b100      	cbz	r0, 0x8000a34
 8000a32:	6384      	str	r4, [r0, #56]	; 0x38
 8000a34:	bd10      	pop	{r4, pc}
 8000a36:	0000      	movs	r0, r0
 8000a38:	e92d 47ff 	stmdb	sp!, {r0, r1, r2, r3, r4, r5, r6, r7, r8, r9, sl, lr}
 8000a3c:	2600      	movs	r6, #0
 8000a3e:	4604      	mov	r4, r0
 8000a40:	4689      	mov	r9, r1
 8000a42:	461f      	mov	r7, r3
 8000a44:	46b0      	mov	r8, r6
 8000a46:	f8df a0e0 	ldr.w	sl, [pc, #224]	; 0x8000b28
 8000a4a:	9201      	str	r2, [sp, #4]
 8000a4c:	f7ff fe8c 	bl	0x8000768
 8000a50:	6ba2      	ldr	r2, [r4, #56]	; 0x38
 8000a52:	6be3      	ldr	r3, [r4, #60]	; 0x3c
 8000a54:	429a      	cmp	r2, r3
 8000a56:	d301      	bcc.n	0x8000a5c
 8000a58:	2f02      	cmp	r7, #2
 8000a5a:	d119      	bne.n	0x8000a90
 8000a5c:	463a      	mov	r2, r7
 8000a5e:	4649      	mov	r1, r9
 8000a60:	4620      	mov	r0, r4
 8000a62:	f7ff ff10 	bl	0x8000886
 8000a66:	6a63      	ldr	r3, [r4, #36]	; 0x24
 8000a68:	b11b      	cbz	r3, 0x8000a72
 8000a6a:	f104 0024 	add.w	r0, r4, #36	; 0x24
 8000a6e:	f001 f861 	bl	0x8001b34
 8000a72:	b138      	cbz	r0, 0x8000a84
 8000a74:	f04f 5280 	mov.w	r2, #268435456	; 0x10000000
 8000a78:	4b2b      	ldr	r3, [pc, #172]	; (0x8000b28)
 8000a7a:	601a      	str	r2, [r3, #0]
 8000a7c:	f3bf 8f4f 	dsb	sy
 8000a80:	f3bf 8f6f 	isb	sy
 8000a84:	f7ff fe80 	bl	0x8000788
 8000a88:	2001      	movs	r0, #1
 8000a8a:	b004      	add	sp, #16
 8000a8c:	e8bd 87f0 	ldmia.w	sp!, {r4, r5, r6, r7, r8, r9, sl, pc}
 8000a90:	9d01      	ldr	r5, [sp, #4]
 8000a92:	b91d      	cbnz	r5, 0x8000a9c
 8000a94:	f7ff fe78 	bl	0x8000788
 8000a98:	2000      	movs	r0, #0
 8000a9a:	e7f6      	b.n	0x8000a8a
 8000a9c:	b916      	cbnz	r6, 0x8000aa4
 8000a9e:	a802      	add	r0, sp, #8
 8000aa0:	f001 f8be 	bl	0x8001c20
 8000aa4:	f7ff fe70 	bl	0x8000788
 8000aa8:	f000 fe00 	bl	0x80016ac
 8000aac:	f7ff fe5c 	bl	0x8000768
 8000ab0:	f894 3044 	ldrb.w	r3, [r4, #68]	; 0x44
 8000ab4:	2bff      	cmp	r3, #255	; 0xff
 8000ab6:	bf08      	it	eq
 8000ab8:	f884 8044 	strbeq.w	r8, [r4, #68]	; 0x44
 8000abc:	f894 3045 	ldrb.w	r3, [r4, #69]	; 0x45
 8000ac0:	2bff      	cmp	r3, #255	; 0xff
 8000ac2:	bf08      	it	eq
 8000ac4:	f884 8045 	strbeq.w	r8, [r4, #69]	; 0x45
 8000ac8:	f7ff fe5e 	bl	0x8000788
 8000acc:	a901      	add	r1, sp, #4
 8000ace:	a802      	add	r0, sp, #8
 8000ad0:	f001 f8b2 	bl	0x8001c38
 8000ad4:	bb10      	cbnz	r0, 0x8000b1c
 8000ad6:	f7ff fe47 	bl	0x8000768
 8000ada:	6ba6      	ldr	r6, [r4, #56]	; 0x38
 8000adc:	6be5      	ldr	r5, [r4, #60]	; 0x3c
 8000ade:	f7ff fe53 	bl	0x8000788
 8000ae2:	42ae      	cmp	r6, r5
 8000ae4:	d114      	bne.n	0x8000b10
 8000ae6:	9901      	ldr	r1, [sp, #4]
 8000ae8:	f104 0010 	add.w	r0, r4, #16
 8000aec:	f000 fffe 	bl	0x8001aec
 8000af0:	4620      	mov	r0, r4
 8000af2:	f7ff ff0f 	bl	0x8000914
 8000af6:	f000 fe81 	bl	0x80017fc
 8000afa:	b938      	cbnz	r0, 0x8000b0c
 8000afc:	f04f 5380 	mov.w	r3, #268435456	; 0x10000000
 8000b00:	f8ca 3000 	str.w	r3, [sl]
 8000b04:	f3bf 8f4f 	dsb	sy
 8000b08:	f3bf 8f6f 	isb	sy
 8000b0c:	2601      	movs	r6, #1
 8000b0e:	e79d      	b.n	0x8000a4c
 8000b10:	4620      	mov	r0, r4
 8000b12:	f7ff feff 	bl	0x8000914
 8000b16:	f000 fe71 	bl	0x80017fc
 8000b1a:	e7f7      	b.n	0x8000b0c
 8000b1c:	4620      	mov	r0, r4
 8000b1e:	f7ff fef9 	bl	0x8000914
 8000b22:	f000 fe6b 	bl	0x80017fc
 8000b26:	e7b7      	b.n	0x8000a98
 8000b28:	ed04 e000 	stc	0, cr14, [r4, #-0]
 8000b2c:	b510      	push	{r4, lr}
 8000b2e:	4602      	mov	r2, r0
 8000b30:	2100      	movs	r1, #0
 8000b32:	2001      	movs	r0, #1
 8000b34:	f7ff ff5c 	bl	0x80009f0
 8000b38:	4604      	mov	r4, r0
 8000b3a:	b138      	cbz	r0, 0x8000b4c
 8000b3c:	2300      	movs	r3, #0
 8000b3e:	6043      	str	r3, [r0, #4]
 8000b40:	6003      	str	r3, [r0, #0]
 8000b42:	60c3      	str	r3, [r0, #12]
 8000b44:	461a      	mov	r2, r3
 8000b46:	4619      	mov	r1, r3
 8000b48:	f7ff ff76 	bl	0x8000a38
 8000b4c:	4620      	mov	r0, r4
 8000b4e:	bd10      	pop	{r4, pc}
 8000b50:	b538      	push	{r3, r4, r5, lr}
 8000b52:	6845      	ldr	r5, [r0, #4]
 8000b54:	4604      	mov	r4, r0
 8000b56:	f001 f95f 	bl	0x8001e18
 8000b5a:	4285      	cmp	r5, r0
 8000b5c:	d10a      	bne.n	0x8000b74
 8000b5e:	68e3      	ldr	r3, [r4, #12]
 8000b60:	3b01      	subs	r3, #1
 8000b62:	60e3      	str	r3, [r4, #12]
 8000b64:	b923      	cbnz	r3, 0x8000b70
 8000b66:	461a      	mov	r2, r3
 8000b68:	4619      	mov	r1, r3
 8000b6a:	4620      	mov	r0, r4
 8000b6c:	f7ff ff64 	bl	0x8000a38
 8000b70:	2001      	movs	r0, #1
 8000b72:	bd38      	pop	{r3, r4, r5, pc}
 8000b74:	2000      	movs	r0, #0
 8000b76:	bd38      	pop	{r3, r4, r5, pc}
 8000b78:	b5f8      	push	{r3, r4, r5, r6, r7, lr}
 8000b7a:	4605      	mov	r5, r0
 8000b7c:	4617      	mov	r7, r2
 8000b7e:	f3ef 8611 	mrs	r6, BASEPRI
 8000b82:	f04f 02bf 	mov.w	r2, #191	; 0xbf
 8000b86:	f382 8811 	msr	BASEPRI, r2
 8000b8a:	f3bf 8f6f 	isb	sy
 8000b8e:	f3bf 8f4f 	dsb	sy
 8000b92:	6b80      	ldr	r0, [r0, #56]	; 0x38
 8000b94:	6bea      	ldr	r2, [r5, #60]	; 0x3c
 8000b96:	4290      	cmp	r0, r2
 8000b98:	d301      	bcc.n	0x8000b9e
 8000b9a:	2b02      	cmp	r3, #2
 8000b9c:	d11e      	bne.n	0x8000bdc
 8000b9e:	f895 4045 	ldrb.w	r4, [r5, #69]	; 0x45
 8000ba2:	461a      	mov	r2, r3
 8000ba4:	b264      	sxtb	r4, r4
 8000ba6:	4628      	mov	r0, r5
 8000ba8:	f7ff fe6d 	bl	0x8000886
 8000bac:	1c63      	adds	r3, r4, #1
 8000bae:	d110      	bne.n	0x8000bd2
 8000bb0:	6a6b      	ldr	r3, [r5, #36]	; 0x24
 8000bb2:	b90b      	cbnz	r3, 0x8000bb8
 8000bb4:	2001      	movs	r0, #1
 8000bb6:	e009      	b.n	0x8000bcc
 8000bb8:	f105 0024 	add.w	r0, r5, #36	; 0x24
 8000bbc:	f000 ffba 	bl	0x8001b34
 8000bc0:	2800      	cmp	r0, #0
 8000bc2:	d0f7      	beq.n	0x8000bb4
 8000bc4:	2f00      	cmp	r7, #0
 8000bc6:	d0f5      	beq.n	0x8000bb4
 8000bc8:	2001      	movs	r0, #1
 8000bca:	6038      	str	r0, [r7, #0]
 8000bcc:	f386 8811 	msr	BASEPRI, r6
 8000bd0:	bdf8      	pop	{r3, r4, r5, r6, r7, pc}
 8000bd2:	3401      	adds	r4, #1
 8000bd4:	b264      	sxtb	r4, r4
 8000bd6:	f885 4045 	strb.w	r4, [r5, #69]	; 0x45
 8000bda:	e7eb      	b.n	0x8000bb4
 8000bdc:	2000      	movs	r0, #0
 8000bde:	e7f5      	b.n	0x8000bcc
 8000be0:	b538      	push	{r3, r4, r5, lr}
 8000be2:	460c      	mov	r4, r1
 8000be4:	f3ef 8511 	mrs	r5, BASEPRI
 8000be8:	f04f 03bf 	mov.w	r3, #191	; 0xbf
 8000bec:	f383 8811 	msr	BASEPRI, r3
 8000bf0:	f3bf 8f6f 	isb	sy
 8000bf4:	f3bf 8f4f 	dsb	sy
 8000bf8:	6b82      	ldr	r2, [r0, #56]	; 0x38
 8000bfa:	6bc3      	ldr	r3, [r0, #60]	; 0x3c
 8000bfc:	429a      	cmp	r2, r3
 8000bfe:	d21b      	bcs.n	0x8000c38
 8000c00:	f890 3045 	ldrb.w	r3, [r0, #69]	; 0x45
 8000c04:	3201      	adds	r2, #1
 8000c06:	b25b      	sxtb	r3, r3
 8000c08:	6382      	str	r2, [r0, #56]	; 0x38
 8000c0a:	1c5a      	adds	r2, r3, #1
 8000c0c:	d10f      	bne.n	0x8000c2e
 8000c0e:	6a43      	ldr	r3, [r0, #36]	; 0x24
 8000c10:	b90b      	cbnz	r3, 0x8000c16
 8000c12:	2001      	movs	r0, #1
 8000c14:	e008      	b.n	0x8000c28
 8000c16:	3024      	adds	r0, #36	; 0x24
 8000c18:	f000 ff8c 	bl	0x8001b34
 8000c1c:	2800      	cmp	r0, #0
 8000c1e:	d0f8      	beq.n	0x8000c12
 8000c20:	2c00      	cmp	r4, #0
 8000c22:	d0f6      	beq.n	0x8000c12
 8000c24:	2001      	movs	r0, #1
 8000c26:	6020      	str	r0, [r4, #0]
 8000c28:	f385 8811 	msr	BASEPRI, r5
 8000c2c:	bd38      	pop	{r3, r4, r5, pc}
 8000c2e:	3301      	adds	r3, #1
 8000c30:	b25b      	sxtb	r3, r3
 8000c32:	f880 3045 	strb.w	r3, [r0, #69]	; 0x45
 8000c36:	e7ec      	b.n	0x8000c12
 8000c38:	2000      	movs	r0, #0
 8000c3a:	e7f5      	b.n	0x8000c28
 8000c3c:	e92d 43f0 	stmdb	sp!, {r4, r5, r6, r7, r8, r9, lr}
 8000c40:	2600      	movs	r6, #0
 8000c42:	4604      	mov	r4, r0
 8000c44:	4688      	mov	r8, r1
 8000c46:	4637      	mov	r7, r6
 8000c48:	b085      	sub	sp, #20
 8000c4a:	f8df 90dc 	ldr.w	r9, [pc, #220]	; 0x8000d28
 8000c4e:	9201      	str	r2, [sp, #4]
 8000c50:	f7ff fd8a 	bl	0x8000768
 8000c54:	6ba5      	ldr	r5, [r4, #56]	; 0x38
 8000c56:	b1d5      	cbz	r5, 0x8000c8e
 8000c58:	4641      	mov	r1, r8
 8000c5a:	4620      	mov	r0, r4
 8000c5c:	3d01      	subs	r5, #1
 8000c5e:	f7ff fe45 	bl	0x80008ec
 8000c62:	63a5      	str	r5, [r4, #56]	; 0x38
 8000c64:	6923      	ldr	r3, [r4, #16]
 8000c66:	b163      	cbz	r3, 0x8000c82
 8000c68:	f104 0010 	add.w	r0, r4, #16
 8000c6c:	f000 ff62 	bl	0x8001b34
 8000c70:	b138      	cbz	r0, 0x8000c82
 8000c72:	f04f 5280 	mov.w	r2, #268435456	; 0x10000000
 8000c76:	4b2c      	ldr	r3, [pc, #176]	; (0x8000d28)
 8000c78:	601a      	str	r2, [r3, #0]
 8000c7a:	f3bf 8f4f 	dsb	sy
 8000c7e:	f3bf 8f6f 	isb	sy
 8000c82:	f7ff fd81 	bl	0x8000788
 8000c86:	2001      	movs	r0, #1
 8000c88:	b005      	add	sp, #20
 8000c8a:	e8bd 83f0 	ldmia.w	sp!, {r4, r5, r6, r7, r8, r9, pc}
 8000c8e:	9d01      	ldr	r5, [sp, #4]
 8000c90:	b91d      	cbnz	r5, 0x8000c9a
 8000c92:	f7ff fd79 	bl	0x8000788
 8000c96:	2000      	movs	r0, #0
 8000c98:	e7f6      	b.n	0x8000c88
 8000c9a:	b916      	cbnz	r6, 0x8000ca2
 8000c9c:	a802      	add	r0, sp, #8
 8000c9e:	f000 ffbf 	bl	0x8001c20
 8000ca2:	f7ff fd71 	bl	0x8000788
 8000ca6:	f000 fd01 	bl	0x80016ac
 8000caa:	f7ff fd5d 	bl	0x8000768
 8000cae:	f894 3044 	ldrb.w	r3, [r4, #68]	; 0x44
 8000cb2:	2bff      	cmp	r3, #255	; 0xff
 8000cb4:	bf08      	it	eq
 8000cb6:	f884 7044 	strbeq.w	r7, [r4, #68]	; 0x44
 8000cba:	f894 3045 	ldrb.w	r3, [r4, #69]	; 0x45
 8000cbe:	2bff      	cmp	r3, #255	; 0xff
 8000cc0:	bf08      	it	eq
 8000cc2:	f884 7045 	strbeq.w	r7, [r4, #69]	; 0x45
 8000cc6:	f7ff fd5f 	bl	0x8000788
 8000cca:	a901      	add	r1, sp, #4
 8000ccc:	a802      	add	r0, sp, #8
 8000cce:	f000 ffb3 	bl	0x8001c38
 8000cd2:	b9f0      	cbnz	r0, 0x8000d12
 8000cd4:	4620      	mov	r0, r4
 8000cd6:	f7ff fdcb 	bl	0x8000870
 8000cda:	b1a0      	cbz	r0, 0x8000d06
 8000cdc:	9901      	ldr	r1, [sp, #4]
 8000cde:	f104 0024 	add.w	r0, r4, #36	; 0x24
 8000ce2:	f000 ff03 	bl	0x8001aec
 8000ce6:	4620      	mov	r0, r4
 8000ce8:	f7ff fe14 	bl	0x8000914
 8000cec:	f000 fd86 	bl	0x80017fc
 8000cf0:	b938      	cbnz	r0, 0x8000d02
 8000cf2:	f04f 5380 	mov.w	r3, #268435456	; 0x10000000
 8000cf6:	f8c9 3000 	str.w	r3, [r9]
 8000cfa:	f3bf 8f4f 	dsb	sy
 8000cfe:	f3bf 8f6f 	isb	sy
 8000d02:	2601      	movs	r6, #1
 8000d04:	e7a4      	b.n	0x8000c50
 8000d06:	4620      	mov	r0, r4
 8000d08:	f7ff fe04 	bl	0x8000914
 8000d0c:	f000 fd76 	bl	0x80017fc
 8000d10:	e7f7      	b.n	0x8000d02
 8000d12:	4620      	mov	r0, r4
 8000d14:	f7ff fdfe 	bl	0x8000914
 8000d18:	f000 fd70 	bl	0x80017fc
 8000d1c:	4620      	mov	r0, r4
 8000d1e:	f7ff fda7 	bl	0x8000870
 8000d22:	2800      	cmp	r0, #0
 8000d24:	d0ed      	beq.n	0x8000d02
 8000d26:	e7b6      	b.n	0x8000c96
 8000d28:	ed04 e000 	stc	0, cr14, [r4, #-0]
 8000d2c:	e92d 43f0 	stmdb	sp!, {r4, r5, r6, r7, r8, r9, lr}
 8000d30:	2500      	movs	r5, #0
 8000d32:	4604      	mov	r4, r0
 8000d34:	462f      	mov	r7, r5
 8000d36:	462e      	mov	r6, r5
 8000d38:	b085      	sub	sp, #20
 8000d3a:	f8df 9114 	ldr.w	r9, [pc, #276]	; 0x8000e50
 8000d3e:	9101      	str	r1, [sp, #4]
 8000d40:	f7ff fd12 	bl	0x8000768
 8000d44:	6ba3      	ldr	r3, [r4, #56]	; 0x38
 8000d46:	b1e3      	cbz	r3, 0x8000d82
 8000d48:	3b01      	subs	r3, #1
 8000d4a:	63a3      	str	r3, [r4, #56]	; 0x38
 8000d4c:	6823      	ldr	r3, [r4, #0]
 8000d4e:	b913      	cbnz	r3, 0x8000d56
 8000d50:	f001 f93e 	bl	0x8001fd0
 8000d54:	6060      	str	r0, [r4, #4]
 8000d56:	6923      	ldr	r3, [r4, #16]
 8000d58:	b163      	cbz	r3, 0x8000d74
 8000d5a:	f104 0010 	add.w	r0, r4, #16
 8000d5e:	f000 fee9 	bl	0x8001b34
 8000d62:	b138      	cbz	r0, 0x8000d74
 8000d64:	f04f 5280 	mov.w	r2, #268435456	; 0x10000000
 8000d68:	4b39      	ldr	r3, [pc, #228]	; (0x8000e50)
 8000d6a:	601a      	str	r2, [r3, #0]
 8000d6c:	f3bf 8f4f 	dsb	sy
 8000d70:	f3bf 8f6f 	isb	sy
 8000d74:	f7ff fd08 	bl	0x8000788
 8000d78:	2501      	movs	r5, #1
 8000d7a:	4628      	mov	r0, r5
 8000d7c:	b005      	add	sp, #20
 8000d7e:	e8bd 83f0 	ldmia.w	sp!, {r4, r5, r6, r7, r8, r9, pc}
 8000d82:	f8dd 8004 	ldr.w	r8, [sp, #4]
 8000d86:	f1b8 0f00 	cmp.w	r8, #0
 8000d8a:	d103      	bne.n	0x8000d94
 8000d8c:	f7ff fcfc 	bl	0x8000788
 8000d90:	2500      	movs	r5, #0
 8000d92:	e7f2      	b.n	0x8000d7a
 8000d94:	b917      	cbnz	r7, 0x8000d9c
 8000d96:	a802      	add	r0, sp, #8
 8000d98:	f000 ff42 	bl	0x8001c20
 8000d9c:	f7ff fcf4 	bl	0x8000788
 8000da0:	f000 fc84 	bl	0x80016ac
 8000da4:	f7ff fce0 	bl	0x8000768
 8000da8:	f894 3044 	ldrb.w	r3, [r4, #68]	; 0x44
 8000dac:	2bff      	cmp	r3, #255	; 0xff
 8000dae:	bf08      	it	eq
 8000db0:	f884 6044 	strbeq.w	r6, [r4, #68]	; 0x44
 8000db4:	f894 3045 	ldrb.w	r3, [r4, #69]	; 0x45
 8000db8:	2bff      	cmp	r3, #255	; 0xff
 8000dba:	bf08      	it	eq
 8000dbc:	f884 6045 	strbeq.w	r6, [r4, #69]	; 0x45
 8000dc0:	f7ff fce2 	bl	0x8000788
 8000dc4:	a901      	add	r1, sp, #4
 8000dc6:	a802      	add	r0, sp, #8
 8000dc8:	f000 ff36 	bl	0x8001c38
 8000dcc:	bb40      	cbnz	r0, 0x8000e20
 8000dce:	4620      	mov	r0, r4
 8000dd0:	f7ff fd4e 	bl	0x8000870
 8000dd4:	b1f0      	cbz	r0, 0x8000e14
 8000dd6:	6823      	ldr	r3, [r4, #0]
 8000dd8:	b93b      	cbnz	r3, 0x8000dea
 8000dda:	f7ff fcc5 	bl	0x8000768
 8000dde:	6860      	ldr	r0, [r4, #4]
 8000de0:	f001 f820 	bl	0x8001e24
 8000de4:	4605      	mov	r5, r0
 8000de6:	f7ff fccf 	bl	0x8000788
 8000dea:	9901      	ldr	r1, [sp, #4]
 8000dec:	f104 0024 	add.w	r0, r4, #36	; 0x24
 8000df0:	f000 fe7c 	bl	0x8001aec
 8000df4:	4620      	mov	r0, r4
 8000df6:	f7ff fd8d 	bl	0x8000914
 8000dfa:	f000 fcff 	bl	0x80017fc
 8000dfe:	b938      	cbnz	r0, 0x8000e10
 8000e00:	f04f 5380 	mov.w	r3, #268435456	; 0x10000000
 8000e04:	f8c9 3000 	str.w	r3, [r9]
 8000e08:	f3bf 8f4f 	dsb	sy
 8000e0c:	f3bf 8f6f 	isb	sy
 8000e10:	2701      	movs	r7, #1
 8000e12:	e795      	b.n	0x8000d40
 8000e14:	4620      	mov	r0, r4
 8000e16:	f7ff fd7d 	bl	0x8000914
 8000e1a:	f000 fcef 	bl	0x80017fc
 8000e1e:	e7f7      	b.n	0x8000e10
 8000e20:	4620      	mov	r0, r4
 8000e22:	f7ff fd77 	bl	0x8000914
 8000e26:	f000 fce9 	bl	0x80017fc
 8000e2a:	4620      	mov	r0, r4
 8000e2c:	f7ff fd20 	bl	0x8000870
 8000e30:	2800      	cmp	r0, #0
 8000e32:	d0ed      	beq.n	0x8000e10
 8000e34:	2d00      	cmp	r5, #0
 8000e36:	d0a0      	beq.n	0x8000d7a
 8000e38:	f7ff fc96 	bl	0x8000768
 8000e3c:	6a61      	ldr	r1, [r4, #36]	; 0x24
 8000e3e:	b119      	cbz	r1, 0x8000e48
 8000e40:	6b23      	ldr	r3, [r4, #48]	; 0x30
 8000e42:	6819      	ldr	r1, [r3, #0]
 8000e44:	f1c1 0105 	rsb	r1, r1, #5
 8000e48:	6860      	ldr	r0, [r4, #4]
 8000e4a:	f001 f877 	bl	0x8001f3c
 8000e4e:	e79d      	b.n	0x8000d8c
 8000e50:	ed04 e000 	stc	0, cr14, [r4, #-0]
 8000e54:	b570      	push	{r4, r5, r6, lr}
 8000e56:	6846      	ldr	r6, [r0, #4]
 8000e58:	4604      	mov	r4, r0
 8000e5a:	460d      	mov	r5, r1
 8000e5c:	f000 ffdc 	bl	0x8001e18
 8000e60:	4286      	cmp	r6, r0
 8000e62:	d104      	bne.n	0x8000e6e
 8000e64:	68e3      	ldr	r3, [r4, #12]
 8000e66:	2001      	movs	r0, #1
 8000e68:	3301      	adds	r3, #1
 8000e6a:	60e3      	str	r3, [r4, #12]
 8000e6c:	bd70      	pop	{r4, r5, r6, pc}
 8000e6e:	4629      	mov	r1, r5
 8000e70:	4620      	mov	r0, r4
 8000e72:	f7ff ff5b 	bl	0x8000d2c
 8000e76:	b110      	cbz	r0, 0x8000e7e
 8000e78:	68e3      	ldr	r3, [r4, #12]
 8000e7a:	3301      	adds	r3, #1
 8000e7c:	60e3      	str	r3, [r4, #12]
 8000e7e:	bd70      	pop	{r4, r5, r6, pc}
 8000e80:	e92d 43f0 	stmdb	sp!, {r4, r5, r6, r7, r8, r9, lr}
 8000e84:	2600      	movs	r6, #0
 8000e86:	4604      	mov	r4, r0
 8000e88:	4688      	mov	r8, r1
 8000e8a:	4637      	mov	r7, r6
 8000e8c:	b085      	sub	sp, #20
 8000e8e:	f8df 90dc 	ldr.w	r9, [pc, #220]	; 0x8000f6c
 8000e92:	9201      	str	r2, [sp, #4]
 8000e94:	f7ff fc68 	bl	0x8000768
 8000e98:	6ba3      	ldr	r3, [r4, #56]	; 0x38
 8000e9a:	b1d3      	cbz	r3, 0x8000ed2
 8000e9c:	4641      	mov	r1, r8
 8000e9e:	4620      	mov	r0, r4
 8000ea0:	68e5      	ldr	r5, [r4, #12]
 8000ea2:	f7ff fd23 	bl	0x80008ec
 8000ea6:	6a63      	ldr	r3, [r4, #36]	; 0x24
 8000ea8:	60e5      	str	r5, [r4, #12]
 8000eaa:	b163      	cbz	r3, 0x8000ec6
 8000eac:	f104 0024 	add.w	r0, r4, #36	; 0x24
 8000eb0:	f000 fe40 	bl	0x8001b34
 8000eb4:	b138      	cbz	r0, 0x8000ec6
 8000eb6:	f04f 5280 	mov.w	r2, #268435456	; 0x10000000
 8000eba:	4b2c      	ldr	r3, [pc, #176]	; (0x8000f6c)
 8000ebc:	601a      	str	r2, [r3, #0]
 8000ebe:	f3bf 8f4f 	dsb	sy
 8000ec2:	f3bf 8f6f 	isb	sy
 8000ec6:	f7ff fc5f 	bl	0x8000788
 8000eca:	2001      	movs	r0, #1
 8000ecc:	b005      	add	sp, #20
 8000ece:	e8bd 83f0 	ldmia.w	sp!, {r4, r5, r6, r7, r8, r9, pc}
 8000ed2:	9d01      	ldr	r5, [sp, #4]
 8000ed4:	b91d      	cbnz	r5, 0x8000ede
 8000ed6:	f7ff fc57 	bl	0x8000788
 8000eda:	2000      	movs	r0, #0
 8000edc:	e7f6      	b.n	0x8000ecc
 8000ede:	b916      	cbnz	r6, 0x8000ee6
 8000ee0:	a802      	add	r0, sp, #8
 8000ee2:	f000 fe9d 	bl	0x8001c20
 8000ee6:	f7ff fc4f 	bl	0x8000788
 8000eea:	f000 fbdf 	bl	0x80016ac
 8000eee:	f7ff fc3b 	bl	0x8000768
 8000ef2:	f894 3044 	ldrb.w	r3, [r4, #68]	; 0x44
 8000ef6:	2bff      	cmp	r3, #255	; 0xff
 8000ef8:	bf08      	it	eq
 8000efa:	f884 7044 	strbeq.w	r7, [r4, #68]	; 0x44
 8000efe:	f894 3045 	ldrb.w	r3, [r4, #69]	; 0x45
 8000f02:	2bff      	cmp	r3, #255	; 0xff
 8000f04:	bf08      	it	eq
 8000f06:	f884 7045 	strbeq.w	r7, [r4, #69]	; 0x45
 8000f0a:	f7ff fc3d 	bl	0x8000788
 8000f0e:	a901      	add	r1, sp, #4
 8000f10:	a802      	add	r0, sp, #8
 8000f12:	f000 fe91 	bl	0x8001c38
 8000f16:	b9f0      	cbnz	r0, 0x8000f56
 8000f18:	4620      	mov	r0, r4
 8000f1a:	f7ff fca9 	bl	0x8000870
 8000f1e:	b1a0      	cbz	r0, 0x8000f4a
 8000f20:	9901      	ldr	r1, [sp, #4]
 8000f22:	f104 0024 	add.w	r0, r4, #36	; 0x24
 8000f26:	f000 fde1 	bl	0x8001aec
 8000f2a:	4620      	mov	r0, r4
 8000f2c:	f7ff fcf2 	bl	0x8000914
 8000f30:	f000 fc64 	bl	0x80017fc
 8000f34:	b938      	cbnz	r0, 0x8000f46
 8000f36:	f04f 5380 	mov.w	r3, #268435456	; 0x10000000
 8000f3a:	f8c9 3000 	str.w	r3, [r9]
 8000f3e:	f3bf 8f4f 	dsb	sy
 8000f42:	f3bf 8f6f 	isb	sy
 8000f46:	2601      	movs	r6, #1
 8000f48:	e7a4      	b.n	0x8000e94
 8000f4a:	4620      	mov	r0, r4
 8000f4c:	f7ff fce2 	bl	0x8000914
 8000f50:	f000 fc54 	bl	0x80017fc
 8000f54:	e7f7      	b.n	0x8000f46
 8000f56:	4620      	mov	r0, r4
 8000f58:	f7ff fcdc 	bl	0x8000914
 8000f5c:	f000 fc4e 	bl	0x80017fc
 8000f60:	4620      	mov	r0, r4
 8000f62:	f7ff fc85 	bl	0x8000870
 8000f66:	2800      	cmp	r0, #0
 8000f68:	d0ed      	beq.n	0x8000f46
 8000f6a:	e7b6      	b.n	0x8000eda
 8000f6c:	ed04 e000 	stc	0, cr14, [r4, #-0]
 8000f70:	e92d 41f0 	stmdb	sp!, {r4, r5, r6, r7, r8, lr}
 8000f74:	4607      	mov	r7, r0
 8000f76:	4690      	mov	r8, r2
 8000f78:	f3ef 8611 	mrs	r6, BASEPRI
 8000f7c:	f04f 03bf 	mov.w	r3, #191	; 0xbf
 8000f80:	f383 8811 	msr	BASEPRI, r3
 8000f84:	f3bf 8f6f 	isb	sy
 8000f88:	f3bf 8f4f 	dsb	sy
 8000f8c:	6b84      	ldr	r4, [r0, #56]	; 0x38
 8000f8e:	b30c      	cbz	r4, 0x8000fd4
 8000f90:	f890 5044 	ldrb.w	r5, [r0, #68]	; 0x44
 8000f94:	3c01      	subs	r4, #1
 8000f96:	b26d      	sxtb	r5, r5
 8000f98:	f7ff fca8 	bl	0x80008ec
 8000f9c:	1c6b      	adds	r3, r5, #1
 8000f9e:	63bc      	str	r4, [r7, #56]	; 0x38
 8000fa0:	d113      	bne.n	0x8000fca
 8000fa2:	693b      	ldr	r3, [r7, #16]
 8000fa4:	b90b      	cbnz	r3, 0x8000faa
 8000fa6:	2001      	movs	r0, #1
 8000fa8:	e00b      	b.n	0x8000fc2
 8000faa:	f107 0010 	add.w	r0, r7, #16
 8000fae:	f000 fdc1 	bl	0x8001b34
 8000fb2:	2800      	cmp	r0, #0
 8000fb4:	d0f7      	beq.n	0x8000fa6
 8000fb6:	f1b8 0f00 	cmp.w	r8, #0
 8000fba:	d0f4      	beq.n	0x8000fa6
 8000fbc:	2001      	movs	r0, #1
 8000fbe:	f8c8 0000 	str.w	r0, [r8]
 8000fc2:	f386 8811 	msr	BASEPRI, r6
 8000fc6:	e8bd 81f0 	ldmia.w	sp!, {r4, r5, r6, r7, r8, pc}
 8000fca:	3501      	adds	r5, #1
 8000fcc:	b26d      	sxtb	r5, r5
 8000fce:	f887 5044 	strb.w	r5, [r7, #68]	; 0x44
 8000fd2:	e7e8      	b.n	0x8000fa6
 8000fd4:	4620      	mov	r0, r4
 8000fd6:	e7f4      	b.n	0x8000fc2
 8000fd8:	b570      	push	{r4, r5, r6, lr}
 8000fda:	4604      	mov	r4, r0
 8000fdc:	f3ef 8511 	mrs	r5, BASEPRI
 8000fe0:	f04f 03bf 	mov.w	r3, #191	; 0xbf
 8000fe4:	f383 8811 	msr	BASEPRI, r3
 8000fe8:	f3bf 8f6f 	isb	sy
 8000fec:	f3bf 8f4f 	dsb	sy
 8000ff0:	6b83      	ldr	r3, [r0, #56]	; 0x38
 8000ff2:	b13b      	cbz	r3, 0x8001004
 8000ff4:	68c6      	ldr	r6, [r0, #12]
 8000ff6:	f7ff fc79 	bl	0x80008ec
 8000ffa:	2001      	movs	r0, #1
 8000ffc:	60e6      	str	r6, [r4, #12]
 8000ffe:	f385 8811 	msr	BASEPRI, r5
 8001002:	bd70      	pop	{r4, r5, r6, pc}
 8001004:	4618      	mov	r0, r3
 8001006:	e7fa      	b.n	0x8000ffe
 8001008:	b510      	push	{r4, lr}
 800100a:	4604      	mov	r4, r0
 800100c:	f7ff fbac 	bl	0x8000768
 8001010:	6ba4      	ldr	r4, [r4, #56]	; 0x38
 8001012:	f7ff fbb9 	bl	0x8000788
 8001016:	4620      	mov	r0, r4
 8001018:	bd10      	pop	{r4, pc}
 800101a:	b538      	push	{r3, r4, r5, lr}
 800101c:	4605      	mov	r5, r0
 800101e:	f7ff fba3 	bl	0x8000768
 8001022:	6ba8      	ldr	r0, [r5, #56]	; 0x38
 8001024:	6bec      	ldr	r4, [r5, #60]	; 0x3c
 8001026:	1a24      	subs	r4, r4, r0
 8001028:	f7ff fbae 	bl	0x8000788
 800102c:	4620      	mov	r0, r4
 800102e:	bd38      	pop	{r3, r4, r5, pc}
 8001030:	6b80      	ldr	r0, [r0, #56]	; 0x38
 8001032:	4770      	bx	lr
 8001034:	f7ff bae2 	b.w	0x80005fc
 8001038:	6c80      	ldr	r0, [r0, #72]	; 0x48
 800103a:	4770      	bx	lr
 800103c:	6481      	str	r1, [r0, #72]	; 0x48
 800103e:	4770      	bx	lr
 8001040:	f890 004c 	ldrb.w	r0, [r0, #76]	; 0x4c
 8001044:	4770      	bx	lr
 8001046:	6b80      	ldr	r0, [r0, #56]	; 0x38
 8001048:	fab0 f080 	clz	r0, r0
 800104c:	0940      	lsrs	r0, r0, #5
 800104e:	4770      	bx	lr
 8001050:	6b83      	ldr	r3, [r0, #56]	; 0x38
 8001052:	6bc0      	ldr	r0, [r0, #60]	; 0x3c
 8001054:	1ac3      	subs	r3, r0, r3
 8001056:	4258      	negs	r0, r3
 8001058:	4158      	adcs	r0, r3
 800105a:	4770      	bx	lr
 800105c:	6942      	ldr	r2, [r0, #20]
 800105e:	4b06      	ldr	r3, [pc, #24]	; (0x8001078)
 8001060:	429a      	cmp	r2, r3
 8001062:	d001      	beq.n	0x8001068
 8001064:	2000      	movs	r0, #0
 8001066:	4770      	bx	lr
 8001068:	6a80      	ldr	r0, [r0, #40]	; 0x28
 800106a:	4b04      	ldr	r3, [pc, #16]	; (0x800107c)
 800106c:	4298      	cmp	r0, r3
 800106e:	d0f9      	beq.n	0x8001064
 8001070:	fab0 f080 	clz	r0, r0
 8001074:	0940      	lsrs	r0, r0, #5
 8001076:	4770      	bx	lr
 8001078:	14f8      	asrs	r0, r7, #19
 800107a:	2000      	movs	r0, #0
 800107c:	14e0      	asrs	r0, r4, #19
 800107e:	2000      	movs	r0, #0
 8001080:	4a06      	ldr	r2, [pc, #24]	; (0x800109c)
 8001082:	6813      	ldr	r3, [r2, #0]
 8001084:	6819      	ldr	r1, [r3, #0]
 8001086:	4b06      	ldr	r3, [pc, #24]	; (0x80010a0)
 8001088:	b919      	cbnz	r1, 0x8001092
 800108a:	f04f 32ff 	mov.w	r2, #4294967295	; 0xffffffff
 800108e:	601a      	str	r2, [r3, #0]
 8001090:	4770      	bx	lr
 8001092:	6812      	ldr	r2, [r2, #0]
 8001094:	68d2      	ldr	r2, [r2, #12]
 8001096:	68d2      	ldr	r2, [r2, #12]
 8001098:	6852      	ldr	r2, [r2, #4]
 800109a:	e7f8      	b.n	0x800108e
 800109c:	1428      	asrs	r0, r5, #16
 800109e:	2000      	movs	r0, #0
 80010a0:	14d8      	asrs	r0, r3, #19
 80010a2:	2000      	movs	r0, #0
 80010a4:	b5f8      	push	{r3, r4, r5, r6, r7, lr}
 80010a6:	4b1b      	ldr	r3, [pc, #108]	; (0x8001114)
 80010a8:	4e1b      	ldr	r6, [pc, #108]	; (0x8001118)
 80010aa:	681d      	ldr	r5, [r3, #0]
 80010ac:	4604      	mov	r4, r0
 80010ae:	6830      	ldr	r0, [r6, #0]
 80010b0:	460f      	mov	r7, r1
 80010b2:	3004      	adds	r0, #4
 80010b4:	f7ff fafa 	bl	0x80006ac
 80010b8:	4633      	mov	r3, r6
 80010ba:	b940      	cbnz	r0, 0x80010ce
 80010bc:	2001      	movs	r0, #1
 80010be:	6831      	ldr	r1, [r6, #0]
 80010c0:	4e16      	ldr	r6, [pc, #88]	; (0x800111c)
 80010c2:	6ac9      	ldr	r1, [r1, #44]	; 0x2c
 80010c4:	6832      	ldr	r2, [r6, #0]
 80010c6:	4088      	lsls	r0, r1
 80010c8:	ea22 0200 	bic.w	r2, r2, r0
 80010cc:	6032      	str	r2, [r6, #0]
 80010ce:	1c62      	adds	r2, r4, #1
 80010d0:	d107      	bne.n	0x80010e2
 80010d2:	b137      	cbz	r7, 0x80010e2
 80010d4:	6819      	ldr	r1, [r3, #0]
 80010d6:	4812      	ldr	r0, [pc, #72]	; (0x8001120)
 80010d8:	3104      	adds	r1, #4
 80010da:	e8bd 40f8 	ldmia.w	sp!, {r3, r4, r5, r6, r7, lr}
 80010de:	f7ff bac2 	b.w	0x8000666
 80010e2:	442c      	add	r4, r5
 80010e4:	681a      	ldr	r2, [r3, #0]
 80010e6:	42a5      	cmp	r5, r4
 80010e8:	6054      	str	r4, [r2, #4]
 80010ea:	d907      	bls.n	0x80010fc
 80010ec:	4a0d      	ldr	r2, [pc, #52]	; (0x8001124)
 80010ee:	6810      	ldr	r0, [r2, #0]
 80010f0:	6819      	ldr	r1, [r3, #0]
 80010f2:	e8bd 40f8 	ldmia.w	sp!, {r3, r4, r5, r6, r7, lr}
 80010f6:	3104      	adds	r1, #4
 80010f8:	f7ff bac1 	b.w	0x800067e
 80010fc:	4a0a      	ldr	r2, [pc, #40]	; (0x8001128)
 80010fe:	6810      	ldr	r0, [r2, #0]
 8001100:	6819      	ldr	r1, [r3, #0]
 8001102:	3104      	adds	r1, #4
 8001104:	f7ff fabb 	bl	0x800067e
 8001108:	4b08      	ldr	r3, [pc, #32]	; (0x800112c)
 800110a:	681a      	ldr	r2, [r3, #0]
 800110c:	4294      	cmp	r4, r2
 800110e:	bf38      	it	cc
 8001110:	601c      	strcc	r4, [r3, #0]
 8001112:	bdf8      	pop	{r3, r4, r5, r6, r7, pc}
 8001114:	1520      	asrs	r0, r4, #20
 8001116:	2000      	movs	r0, #0
 8001118:	1424      	asrs	r4, r4, #16
 800111a:	2000      	movs	r0, #0
 800111c:	14a8      	asrs	r0, r5, #18
 800111e:	2000      	movs	r0, #0
 8001120:	14f8      	asrs	r0, r7, #19
 8001122:	2000      	movs	r0, #0
 8001124:	142c      	asrs	r4, r5, #16
 8001126:	2000      	movs	r0, #0
 8001128:	1428      	asrs	r0, r5, #16
 800112a:	2000      	movs	r0, #0
 800112c:	14d8      	asrs	r0, r3, #19
 800112e:	2000      	movs	r0, #0
 8001130:	e92d 4ff8 	stmdb	sp!, {r3, r4, r5, r6, r7, r8, r9, sl, fp, lr}
 8001134:	ea4f 0a82 	mov.w	sl, r2, lsl #2
 8001138:	4680      	mov	r8, r0
 800113a:	4650      	mov	r0, sl
 800113c:	460d      	mov	r5, r1
 800113e:	4699      	mov	r9, r3
 8001140:	9e0b      	ldr	r6, [sp, #44]	; 0x2c
 8001142:	f7ff fa01 	bl	0x8000548
 8001146:	4607      	mov	r7, r0
 8001148:	2800      	cmp	r0, #0
 800114a:	f000 80a6 	beq.w	0x800129a
 800114e:	205c      	movs	r0, #92	; 0x5c
 8001150:	f7ff f9fa 	bl	0x8000548
 8001154:	4604      	mov	r4, r0
 8001156:	2800      	cmp	r0, #0
 8001158:	f000 809c 	beq.w	0x8001294
 800115c:	4652      	mov	r2, sl
 800115e:	6307      	str	r7, [r0, #48]	; 0x30
 8001160:	21a5      	movs	r1, #165	; 0xa5
 8001162:	4638      	mov	r0, r7
 8001164:	f004 ff60 	bl	0x8006028
 8001168:	6b23      	ldr	r3, [r4, #48]	; 0x30
 800116a:	f1aa 0a04 	sub.w	sl, sl, #4
 800116e:	449a      	add	sl, r3
 8001170:	f02a 0a07 	bic.w	sl, sl, #7
 8001174:	1e6b      	subs	r3, r5, #1
 8001176:	f104 0234 	add.w	r2, r4, #52	; 0x34
 800117a:	350f      	adds	r5, #15
 800117c:	7859      	ldrb	r1, [r3, #1]
 800117e:	f802 1b01 	strb.w	r1, [r2], #1
 8001182:	f813 1f01 	ldrb.w	r1, [r3, #1]!
 8001186:	b109      	cbz	r1, 0x800118c
 8001188:	42ab      	cmp	r3, r5
 800118a:	d1f7      	bne.n	0x800117c
 800118c:	9d0a      	ldr	r5, [sp, #40]	; 0x28
 800118e:	f04f 0b00 	mov.w	fp, #0
 8001192:	2d04      	cmp	r5, #4
 8001194:	bf28      	it	cs
 8001196:	2504      	movcs	r5, #4
 8001198:	1d27      	adds	r7, r4, #4
 800119a:	62e5      	str	r5, [r4, #44]	; 0x2c
 800119c:	64e5      	str	r5, [r4, #76]	; 0x4c
 800119e:	4638      	mov	r0, r7
 80011a0:	f884 b043 	strb.w	fp, [r4, #67]	; 0x43
 80011a4:	f8c4 b050 	str.w	fp, [r4, #80]	; 0x50
 80011a8:	f7ff fa5a 	bl	0x8000660
 80011ac:	f1c5 0505 	rsb	r5, r5, #5
 80011b0:	f104 0018 	add.w	r0, r4, #24
 80011b4:	f7ff fa54 	bl	0x8000660
 80011b8:	f8c4 b054 	str.w	fp, [r4, #84]	; 0x54
 80011bc:	6124      	str	r4, [r4, #16]
 80011be:	61a5      	str	r5, [r4, #24]
 80011c0:	6264      	str	r4, [r4, #36]	; 0x24
 80011c2:	f884 b058 	strb.w	fp, [r4, #88]	; 0x58
 80011c6:	464a      	mov	r2, r9
 80011c8:	4641      	mov	r1, r8
 80011ca:	4650      	mov	r0, sl
 80011cc:	f7ff faa0 	bl	0x8000710
 80011d0:	6020      	str	r0, [r4, #0]
 80011d2:	b106      	cbz	r6, 0x80011d6
 80011d4:	6034      	str	r4, [r6, #0]
 80011d6:	f7ff fac7 	bl	0x8000768
 80011da:	4b37      	ldr	r3, [pc, #220]	; (0x80012b8)
 80011dc:	4e37      	ldr	r6, [pc, #220]	; (0x80012bc)
 80011de:	681a      	ldr	r2, [r3, #0]
 80011e0:	f8df 8114 	ldr.w	r8, [pc, #276]	; 0x80012f8
 80011e4:	3201      	adds	r2, #1
 80011e6:	601a      	str	r2, [r3, #0]
 80011e8:	6832      	ldr	r2, [r6, #0]
 80011ea:	2a00      	cmp	r2, #0
 80011ec:	d158      	bne.n	0x80012a0
 80011ee:	6034      	str	r4, [r6, #0]
 80011f0:	681b      	ldr	r3, [r3, #0]
 80011f2:	2b01      	cmp	r3, #1
 80011f4:	d125      	bne.n	0x8001242
 80011f6:	4832      	ldr	r0, [pc, #200]	; (0x80012c0)
 80011f8:	f7ff fa27 	bl	0x800064a
 80011fc:	4831      	ldr	r0, [pc, #196]	; (0x80012c4)
 80011fe:	f7ff fa24 	bl	0x800064a
 8001202:	4831      	ldr	r0, [pc, #196]	; (0x80012c8)
 8001204:	f7ff fa21 	bl	0x800064a
 8001208:	f8df 90f0 	ldr.w	r9, [pc, #240]	; 0x80012fc
 800120c:	482f      	ldr	r0, [pc, #188]	; (0x80012cc)
 800120e:	f7ff fa1c 	bl	0x800064a
 8001212:	4d2f      	ldr	r5, [pc, #188]	; (0x80012d0)
 8001214:	482f      	ldr	r0, [pc, #188]	; (0x80012d4)
 8001216:	f7ff fa18 	bl	0x800064a
 800121a:	4648      	mov	r0, r9
 800121c:	f7ff fa15 	bl	0x800064a
 8001220:	4628      	mov	r0, r5
 8001222:	f7ff fa12 	bl	0x800064a
 8001226:	482c      	ldr	r0, [pc, #176]	; (0x80012d8)
 8001228:	f7ff fa0f 	bl	0x800064a
 800122c:	482b      	ldr	r0, [pc, #172]	; (0x80012dc)
 800122e:	f7ff fa0c 	bl	0x800064a
 8001232:	482b      	ldr	r0, [pc, #172]	; (0x80012e0)
 8001234:	f7ff fa09 	bl	0x800064a
 8001238:	4b2a      	ldr	r3, [pc, #168]	; (0x80012e4)
 800123a:	f8c3 9000 	str.w	r9, [r3]
 800123e:	4b2a      	ldr	r3, [pc, #168]	; (0x80012e8)
 8001240:	601d      	str	r5, [r3, #0]
 8001242:	2501      	movs	r5, #1
 8001244:	4a29      	ldr	r2, [pc, #164]	; (0x80012ec)
 8001246:	492a      	ldr	r1, [pc, #168]	; (0x80012f0)
 8001248:	6813      	ldr	r3, [r2, #0]
 800124a:	6808      	ldr	r0, [r1, #0]
 800124c:	3301      	adds	r3, #1
 800124e:	6013      	str	r3, [r2, #0]
 8001250:	6ae2      	ldr	r2, [r4, #44]	; 0x2c
 8001252:	6463      	str	r3, [r4, #68]	; 0x44
 8001254:	fa05 f302 	lsl.w	r3, r5, r2
 8001258:	4303      	orrs	r3, r0
 800125a:	2014      	movs	r0, #20
 800125c:	600b      	str	r3, [r1, #0]
 800125e:	4b18      	ldr	r3, [pc, #96]	; (0x80012c0)
 8001260:	4639      	mov	r1, r7
 8001262:	fb00 3002 	mla	r0, r0, r2, r3
 8001266:	f7ff f9fe 	bl	0x8000666
 800126a:	f7ff fa8d 	bl	0x8000788
 800126e:	f8d8 3000 	ldr.w	r3, [r8]
 8001272:	b163      	cbz	r3, 0x800128e
 8001274:	6833      	ldr	r3, [r6, #0]
 8001276:	6ada      	ldr	r2, [r3, #44]	; 0x2c
 8001278:	6ae3      	ldr	r3, [r4, #44]	; 0x2c
 800127a:	429a      	cmp	r2, r3
 800127c:	d207      	bcs.n	0x800128e
 800127e:	f04f 5280 	mov.w	r2, #268435456	; 0x10000000
 8001282:	4b1c      	ldr	r3, [pc, #112]	; (0x80012f4)
 8001284:	601a      	str	r2, [r3, #0]
 8001286:	f3bf 8f4f 	dsb	sy
 800128a:	f3bf 8f6f 	isb	sy
 800128e:	4628      	mov	r0, r5
 8001290:	e8bd 8ff8 	ldmia.w	sp!, {r3, r4, r5, r6, r7, r8, r9, sl, fp, pc}
 8001294:	4638      	mov	r0, r7
 8001296:	f7ff f9b1 	bl	0x80005fc
 800129a:	f04f 35ff 	mov.w	r5, #4294967295	; 0xffffffff
 800129e:	e7f6      	b.n	0x800128e
 80012a0:	f8d8 3000 	ldr.w	r3, [r8]
 80012a4:	2b00      	cmp	r3, #0
 80012a6:	d1cc      	bne.n	0x8001242
 80012a8:	6833      	ldr	r3, [r6, #0]
 80012aa:	6ada      	ldr	r2, [r3, #44]	; 0x2c
 80012ac:	6ae3      	ldr	r3, [r4, #44]	; 0x2c
 80012ae:	429a      	cmp	r2, r3
 80012b0:	bf98      	it	ls
 80012b2:	6034      	strls	r4, [r6, #0]
 80012b4:	e7c5      	b.n	0x8001242
 80012b6:	bf00      	nop
 80012b8:	1494      	asrs	r4, r2, #18
 80012ba:	2000      	movs	r0, #0
 80012bc:	1424      	asrs	r4, r4, #16
 80012be:	2000      	movs	r0, #0
 80012c0:	1430      	asrs	r0, r6, #16
 80012c2:	2000      	movs	r0, #0
 80012c4:	1444      	asrs	r4, r0, #17
 80012c6:	2000      	movs	r0, #0
 80012c8:	1458      	asrs	r0, r3, #17
 80012ca:	2000      	movs	r0, #0
 80012cc:	146c      	asrs	r4, r5, #17
 80012ce:	2000      	movs	r0, #0
 80012d0:	14c0      	asrs	r0, r0, #19
 80012d2:	2000      	movs	r0, #0
 80012d4:	1480      	asrs	r0, r0, #18
 80012d6:	2000      	movs	r0, #0
 80012d8:	14e0      	asrs	r0, r4, #19
 80012da:	2000      	movs	r0, #0
 80012dc:	150c      	asrs	r4, r1, #20
 80012de:	2000      	movs	r0, #0
 80012e0:	14f8      	asrs	r0, r7, #19
 80012e2:	2000      	movs	r0, #0
 80012e4:	1428      	asrs	r0, r5, #16
 80012e6:	2000      	movs	r0, #0
 80012e8:	142c      	asrs	r4, r5, #16
 80012ea:	2000      	movs	r0, #0
 80012ec:	14a4      	asrs	r4, r4, #18
 80012ee:	2000      	movs	r0, #0
 80012f0:	14a8      	asrs	r0, r5, #18
 80012f2:	2000      	movs	r0, #0
 80012f4:	ed04 e000 	stc	0, cr14, [r4, #-0]
 80012f8:	14f4      	asrs	r4, r6, #19
 80012fa:	2000      	movs	r0, #0
 80012fc:	14ac      	asrs	r4, r5, #18
 80012fe:	2000      	movs	r0, #0
 8001300:	b570      	push	{r4, r5, r6, lr}
 8001302:	4604      	mov	r4, r0
 8001304:	4d24      	ldr	r5, [pc, #144]	; (0x8001398)
 8001306:	f7ff fa2f 	bl	0x8000768
 800130a:	b904      	cbnz	r4, 0x800130e
 800130c:	682c      	ldr	r4, [r5, #0]
 800130e:	1d26      	adds	r6, r4, #4
 8001310:	4630      	mov	r0, r6
 8001312:	f7ff f9cb 	bl	0x80006ac
 8001316:	b960      	cbnz	r0, 0x8001332
 8001318:	2114      	movs	r1, #20
 800131a:	6ae0      	ldr	r0, [r4, #44]	; 0x2c
 800131c:	4b1f      	ldr	r3, [pc, #124]	; (0x800139c)
 800131e:	4341      	muls	r1, r0
 8001320:	585b      	ldr	r3, [r3, r1]
 8001322:	b933      	cbnz	r3, 0x8001332
 8001324:	2201      	movs	r2, #1
 8001326:	491e      	ldr	r1, [pc, #120]	; (0x80013a0)
 8001328:	4082      	lsls	r2, r0
 800132a:	680b      	ldr	r3, [r1, #0]
 800132c:	ea23 0302 	bic.w	r3, r3, r2
 8001330:	600b      	str	r3, [r1, #0]
 8001332:	6aa3      	ldr	r3, [r4, #40]	; 0x28
 8001334:	b11b      	cbz	r3, 0x800133e
 8001336:	f104 0018 	add.w	r0, r4, #24
 800133a:	f7ff f9b7 	bl	0x80006ac
 800133e:	4a19      	ldr	r2, [pc, #100]	; (0x80013a4)
 8001340:	6813      	ldr	r3, [r2, #0]
 8001342:	3301      	adds	r3, #1
 8001344:	6013      	str	r3, [r2, #0]
 8001346:	682b      	ldr	r3, [r5, #0]
 8001348:	429c      	cmp	r4, r3
 800134a:	d118      	bne.n	0x800137e
 800134c:	4631      	mov	r1, r6
 800134e:	4816      	ldr	r0, [pc, #88]	; (0x80013a8)
 8001350:	f7ff f989 	bl	0x8000666
 8001354:	4a15      	ldr	r2, [pc, #84]	; (0x80013ac)
 8001356:	6813      	ldr	r3, [r2, #0]
 8001358:	3301      	adds	r3, #1
 800135a:	6013      	str	r3, [r2, #0]
 800135c:	f7ff fa14 	bl	0x8000788
 8001360:	4b13      	ldr	r3, [pc, #76]	; (0x80013b0)
 8001362:	681b      	ldr	r3, [r3, #0]
 8001364:	b153      	cbz	r3, 0x800137c
 8001366:	682b      	ldr	r3, [r5, #0]
 8001368:	429c      	cmp	r4, r3
 800136a:	d107      	bne.n	0x800137c
 800136c:	f04f 5280 	mov.w	r2, #268435456	; 0x10000000
 8001370:	4b10      	ldr	r3, [pc, #64]	; (0x80013b4)
 8001372:	601a      	str	r2, [r3, #0]
 8001374:	f3bf 8f4f 	dsb	sy
 8001378:	f3bf 8f6f 	isb	sy
 800137c:	bd70      	pop	{r4, r5, r6, pc}
 800137e:	4a0e      	ldr	r2, [pc, #56]	; (0x80013b8)
 8001380:	6b20      	ldr	r0, [r4, #48]	; 0x30
 8001382:	6813      	ldr	r3, [r2, #0]
 8001384:	3b01      	subs	r3, #1
 8001386:	6013      	str	r3, [r2, #0]
 8001388:	f7ff f938 	bl	0x80005fc
 800138c:	4620      	mov	r0, r4
 800138e:	f7ff f935 	bl	0x80005fc
 8001392:	f7ff fe75 	bl	0x8001080
 8001396:	e7e1      	b.n	0x800135c
 8001398:	1424      	asrs	r4, r4, #16
 800139a:	2000      	movs	r0, #0
 800139c:	1430      	asrs	r0, r6, #16
 800139e:	2000      	movs	r0, #0
 80013a0:	14a8      	asrs	r0, r5, #18
 80013a2:	2000      	movs	r0, #0
 80013a4:	14a4      	asrs	r4, r4, #18
 80013a6:	2000      	movs	r0, #0
 80013a8:	150c      	asrs	r4, r1, #20
 80013aa:	2000      	movs	r0, #0
 80013ac:	1498      	asrs	r0, r3, #18
 80013ae:	2000      	movs	r0, #0
 80013b0:	14f4      	asrs	r4, r6, #19
 80013b2:	2000      	movs	r0, #0
 80013b4:	ed04 e000 	stc	0, cr14, [r4, #-0]
 80013b8:	1494      	asrs	r4, r2, #18
 80013ba:	2000      	movs	r0, #0
 80013bc:	b538      	push	{r3, r4, r5, lr}
 80013be:	4b14      	ldr	r3, [pc, #80]	; (0x8001410)
 80013c0:	4605      	mov	r5, r0
 80013c2:	681b      	ldr	r3, [r3, #0]
 80013c4:	4298      	cmp	r0, r3
 80013c6:	d01d      	beq.n	0x8001404
 80013c8:	f7ff f9ce 	bl	0x8000768
 80013cc:	696c      	ldr	r4, [r5, #20]
 80013ce:	f7ff f9db 	bl	0x8000788
 80013d2:	4b10      	ldr	r3, [pc, #64]	; (0x8001414)
 80013d4:	681b      	ldr	r3, [r3, #0]
 80013d6:	429c      	cmp	r4, r3
 80013d8:	d016      	beq.n	0x8001408
 80013da:	4b0f      	ldr	r3, [pc, #60]	; (0x8001418)
 80013dc:	681b      	ldr	r3, [r3, #0]
 80013de:	429c      	cmp	r4, r3
 80013e0:	d012      	beq.n	0x8001408
 80013e2:	4b0e      	ldr	r3, [pc, #56]	; (0x800141c)
 80013e4:	429c      	cmp	r4, r3
 80013e6:	d105      	bne.n	0x80013f4
 80013e8:	6aab      	ldr	r3, [r5, #40]	; 0x28
 80013ea:	2b00      	cmp	r3, #0
 80013ec:	bf14      	ite	ne
 80013ee:	2002      	movne	r0, #2
 80013f0:	2003      	moveq	r0, #3
 80013f2:	bd38      	pop	{r3, r4, r5, pc}
 80013f4:	4b0a      	ldr	r3, [pc, #40]	; (0x8001420)
 80013f6:	429c      	cmp	r4, r3
 80013f8:	d008      	beq.n	0x800140c
 80013fa:	2c00      	cmp	r4, #0
 80013fc:	bf0c      	ite	eq
 80013fe:	2004      	moveq	r0, #4
 8001400:	2001      	movne	r0, #1
 8001402:	bd38      	pop	{r3, r4, r5, pc}
 8001404:	2000      	movs	r0, #0
 8001406:	bd38      	pop	{r3, r4, r5, pc}
 8001408:	2002      	movs	r0, #2
 800140a:	bd38      	pop	{r3, r4, r5, pc}
 800140c:	2004      	movs	r0, #4
 800140e:	bd38      	pop	{r3, r4, r5, pc}
 8001410:	1424      	asrs	r4, r4, #16
 8001412:	2000      	movs	r0, #0
 8001414:	1428      	asrs	r0, r5, #16
 8001416:	2000      	movs	r0, #0
 8001418:	142c      	asrs	r4, r5, #16
 800141a:	2000      	movs	r0, #0
 800141c:	14f8      	asrs	r0, r7, #19
 800141e:	2000      	movs	r0, #0
 8001420:	150c      	asrs	r4, r1, #20
 8001422:	2000      	movs	r0, #0
 8001424:	b510      	push	{r4, lr}
 8001426:	4604      	mov	r4, r0
 8001428:	f7ff f99e 	bl	0x8000768
 800142c:	b90c      	cbnz	r4, 0x8001432
 800142e:	4b03      	ldr	r3, [pc, #12]	; (0x800143c)
 8001430:	681c      	ldr	r4, [r3, #0]
 8001432:	6ae4      	ldr	r4, [r4, #44]	; 0x2c
 8001434:	f7ff f9a8 	bl	0x8000788
 8001438:	4620      	mov	r0, r4
 800143a:	bd10      	pop	{r4, pc}
 800143c:	1424      	asrs	r4, r4, #16
 800143e:	2000      	movs	r0, #0
 8001440:	f3ef 8311 	mrs	r3, BASEPRI
 8001444:	f04f 02bf 	mov.w	r2, #191	; 0xbf
 8001448:	f382 8811 	msr	BASEPRI, r2
 800144c:	f3bf 8f6f 	isb	sy
 8001450:	f3bf 8f4f 	dsb	sy
 8001454:	b908      	cbnz	r0, 0x800145a
 8001456:	4a03      	ldr	r2, [pc, #12]	; (0x8001464)
 8001458:	6810      	ldr	r0, [r2, #0]
 800145a:	6ac0      	ldr	r0, [r0, #44]	; 0x2c
 800145c:	f383 8811 	msr	BASEPRI, r3
 8001460:	4770      	bx	lr
 8001462:	bf00      	nop
 8001464:	1424      	asrs	r4, r4, #16
 8001466:	2000      	movs	r0, #0
 8001468:	2904      	cmp	r1, #4
 800146a:	e92d 41f0 	stmdb	sp!, {r4, r5, r6, r7, r8, lr}
 800146e:	bf28      	it	cs
 8001470:	2104      	movcs	r1, #4
 8001472:	4604      	mov	r4, r0
 8001474:	460e      	mov	r6, r1
 8001476:	f7ff f977 	bl	0x8000768
 800147a:	b90c      	cbnz	r4, 0x8001480
 800147c:	4b28      	ldr	r3, [pc, #160]	; (0x8001520)
 800147e:	681c      	ldr	r4, [r3, #0]
 8001480:	6ce2      	ldr	r2, [r4, #76]	; 0x4c
 8001482:	42b2      	cmp	r2, r6
 8001484:	d041      	beq.n	0x800150a
 8001486:	4b26      	ldr	r3, [pc, #152]	; (0x8001520)
 8001488:	d243      	bcs.n	0x8001512
 800148a:	6819      	ldr	r1, [r3, #0]
 800148c:	428c      	cmp	r4, r1
 800148e:	d045      	beq.n	0x800151c
 8001490:	681b      	ldr	r3, [r3, #0]
 8001492:	6add      	ldr	r5, [r3, #44]	; 0x2c
 8001494:	42b5      	cmp	r5, r6
 8001496:	bf8c      	ite	hi
 8001498:	2500      	movhi	r5, #0
 800149a:	2501      	movls	r5, #1
 800149c:	6ae7      	ldr	r7, [r4, #44]	; 0x2c
 800149e:	69a3      	ldr	r3, [r4, #24]
 80014a0:	42ba      	cmp	r2, r7
 80014a2:	bf08      	it	eq
 80014a4:	62e6      	streq	r6, [r4, #44]	; 0x2c
 80014a6:	2b00      	cmp	r3, #0
 80014a8:	f04f 0314 	mov.w	r3, #20
 80014ac:	64e6      	str	r6, [r4, #76]	; 0x4c
 80014ae:	bfa4      	itt	ge
 80014b0:	f1c6 0605 	rsbge	r6, r6, #5
 80014b4:	61a6      	strge	r6, [r4, #24]
 80014b6:	4e1b      	ldr	r6, [pc, #108]	; (0x8001524)
 80014b8:	6962      	ldr	r2, [r4, #20]
 80014ba:	fb03 6307 	mla	r3, r3, r7, r6
 80014be:	429a      	cmp	r2, r3
 80014c0:	d11a      	bne.n	0x80014f8
 80014c2:	f104 0804 	add.w	r8, r4, #4
 80014c6:	4640      	mov	r0, r8
 80014c8:	f7ff f8f0 	bl	0x80006ac
 80014cc:	b938      	cbnz	r0, 0x80014de
 80014ce:	2201      	movs	r2, #1
 80014d0:	4915      	ldr	r1, [pc, #84]	; (0x8001528)
 80014d2:	fa02 f707 	lsl.w	r7, r2, r7
 80014d6:	680b      	ldr	r3, [r1, #0]
 80014d8:	ea23 0707 	bic.w	r7, r3, r7
 80014dc:	600f      	str	r7, [r1, #0]
 80014de:	2301      	movs	r3, #1
 80014e0:	4911      	ldr	r1, [pc, #68]	; (0x8001528)
 80014e2:	6ae2      	ldr	r2, [r4, #44]	; 0x2c
 80014e4:	6808      	ldr	r0, [r1, #0]
 80014e6:	4093      	lsls	r3, r2
 80014e8:	4303      	orrs	r3, r0
 80014ea:	2014      	movs	r0, #20
 80014ec:	600b      	str	r3, [r1, #0]
 80014ee:	fb00 6002 	mla	r0, r0, r2, r6
 80014f2:	4641      	mov	r1, r8
 80014f4:	f7ff f8b7 	bl	0x8000666
 80014f8:	b13d      	cbz	r5, 0x800150a
 80014fa:	f04f 5280 	mov.w	r2, #268435456	; 0x10000000
 80014fe:	4b0b      	ldr	r3, [pc, #44]	; (0x800152c)
 8001500:	601a      	str	r2, [r3, #0]
 8001502:	f3bf 8f4f 	dsb	sy
 8001506:	f3bf 8f6f 	isb	sy
 800150a:	e8bd 41f0 	ldmia.w	sp!, {r4, r5, r6, r7, r8, lr}
 800150e:	f7ff b93b 	b.w	0x8000788
 8001512:	681d      	ldr	r5, [r3, #0]
 8001514:	1b63      	subs	r3, r4, r5
 8001516:	425d      	negs	r5, r3
 8001518:	415d      	adcs	r5, r3
 800151a:	e7bf      	b.n	0x800149c
 800151c:	2500      	movs	r5, #0
 800151e:	e7bd      	b.n	0x800149c
 8001520:	1424      	asrs	r4, r4, #16
 8001522:	2000      	movs	r0, #0
 8001524:	1430      	asrs	r0, r6, #16
 8001526:	2000      	movs	r0, #0
 8001528:	14a8      	asrs	r0, r5, #18
 800152a:	2000      	movs	r0, #0
 800152c:	ed04 e000 	stc	0, cr14, [r4, #-0]
 8001530:	b570      	push	{r4, r5, r6, lr}
 8001532:	4604      	mov	r4, r0
 8001534:	b360      	cbz	r0, 0x8001590
 8001536:	4d17      	ldr	r5, [pc, #92]	; (0x8001594)
 8001538:	682b      	ldr	r3, [r5, #0]
 800153a:	4298      	cmp	r0, r3
 800153c:	d028      	beq.n	0x8001590
 800153e:	f7ff f913 	bl	0x8000768
 8001542:	4620      	mov	r0, r4
 8001544:	f7ff fd8a 	bl	0x800105c
 8001548:	b1f0      	cbz	r0, 0x8001588
 800154a:	1d26      	adds	r6, r4, #4
 800154c:	4630      	mov	r0, r6
 800154e:	f7ff f8ad 	bl	0x80006ac
 8001552:	2301      	movs	r3, #1
 8001554:	4910      	ldr	r1, [pc, #64]	; (0x8001598)
 8001556:	6ae2      	ldr	r2, [r4, #44]	; 0x2c
 8001558:	6808      	ldr	r0, [r1, #0]
 800155a:	4093      	lsls	r3, r2
 800155c:	4303      	orrs	r3, r0
 800155e:	2014      	movs	r0, #20
 8001560:	600b      	str	r3, [r1, #0]
 8001562:	4b0e      	ldr	r3, [pc, #56]	; (0x800159c)
 8001564:	4631      	mov	r1, r6
 8001566:	fb00 3002 	mla	r0, r0, r2, r3
 800156a:	f7ff f87c 	bl	0x8000666
 800156e:	682b      	ldr	r3, [r5, #0]
 8001570:	6ae2      	ldr	r2, [r4, #44]	; 0x2c
 8001572:	6adb      	ldr	r3, [r3, #44]	; 0x2c
 8001574:	429a      	cmp	r2, r3
 8001576:	d307      	bcc.n	0x8001588
 8001578:	f04f 5280 	mov.w	r2, #268435456	; 0x10000000
 800157c:	4b08      	ldr	r3, [pc, #32]	; (0x80015a0)
 800157e:	601a      	str	r2, [r3, #0]
 8001580:	f3bf 8f4f 	dsb	sy
 8001584:	f3bf 8f6f 	isb	sy
 8001588:	e8bd 4070 	ldmia.w	sp!, {r4, r5, r6, lr}
 800158c:	f7ff b8fc 	b.w	0x8000788
 8001590:	bd70      	pop	{r4, r5, r6, pc}
 8001592:	bf00      	nop
 8001594:	1424      	asrs	r4, r4, #16
 8001596:	2000      	movs	r0, #0
 8001598:	14a8      	asrs	r0, r5, #18
 800159a:	2000      	movs	r0, #0
 800159c:	1430      	asrs	r0, r6, #16
 800159e:	2000      	movs	r0, #0
 80015a0:	ed04 e000 	stc	0, cr14, [r4, #-0]
 80015a4:	b5f8      	push	{r3, r4, r5, r6, r7, lr}
 80015a6:	4605      	mov	r5, r0
 80015a8:	f3ef 8611 	mrs	r6, BASEPRI
 80015ac:	f04f 03bf 	mov.w	r3, #191	; 0xbf
 80015b0:	f383 8811 	msr	BASEPRI, r3
 80015b4:	f3bf 8f6f 	isb	sy
 80015b8:	f3bf 8f4f 	dsb	sy
 80015bc:	f7ff fd4e 	bl	0x800105c
 80015c0:	b338      	cbz	r0, 0x8001612
 80015c2:	4b15      	ldr	r3, [pc, #84]	; (0x8001618)
 80015c4:	681b      	ldr	r3, [r3, #0]
 80015c6:	b9eb      	cbnz	r3, 0x8001604
 80015c8:	4b14      	ldr	r3, [pc, #80]	; (0x800161c)
 80015ca:	6aec      	ldr	r4, [r5, #44]	; 0x2c
 80015cc:	681b      	ldr	r3, [r3, #0]
 80015ce:	1d2f      	adds	r7, r5, #4
 80015d0:	6ad8      	ldr	r0, [r3, #44]	; 0x2c
 80015d2:	4284      	cmp	r4, r0
 80015d4:	4638      	mov	r0, r7
 80015d6:	bf34      	ite	cc
 80015d8:	2400      	movcc	r4, #0
 80015da:	2401      	movcs	r4, #1
 80015dc:	f7ff f866 	bl	0x80006ac
 80015e0:	2301      	movs	r3, #1
 80015e2:	490f      	ldr	r1, [pc, #60]	; (0x8001620)
 80015e4:	6aea      	ldr	r2, [r5, #44]	; 0x2c
 80015e6:	6808      	ldr	r0, [r1, #0]
 80015e8:	4093      	lsls	r3, r2
 80015ea:	4303      	orrs	r3, r0
 80015ec:	2014      	movs	r0, #20
 80015ee:	600b      	str	r3, [r1, #0]
 80015f0:	4b0c      	ldr	r3, [pc, #48]	; (0x8001624)
 80015f2:	4639      	mov	r1, r7
 80015f4:	fb00 3002 	mla	r0, r0, r2, r3
 80015f8:	f7ff f835 	bl	0x8000666
 80015fc:	f386 8811 	msr	BASEPRI, r6
 8001600:	4620      	mov	r0, r4
 8001602:	bdf8      	pop	{r3, r4, r5, r6, r7, pc}
 8001604:	f105 0118 	add.w	r1, r5, #24
 8001608:	4807      	ldr	r0, [pc, #28]	; (0x8001628)
 800160a:	f7ff f82c 	bl	0x8000666
 800160e:	2400      	movs	r4, #0
 8001610:	e7f4      	b.n	0x80015fc
 8001612:	4604      	mov	r4, r0
 8001614:	e7f2      	b.n	0x80015fc
 8001616:	bf00      	nop
 8001618:	14a0      	asrs	r0, r4, #18
 800161a:	2000      	movs	r0, #0
 800161c:	1424      	asrs	r4, r4, #16
 800161e:	2000      	movs	r0, #0
 8001620:	14a8      	asrs	r0, r5, #18
 8001622:	2000      	movs	r0, #0
 8001624:	1430      	asrs	r0, r6, #16
 8001626:	2000      	movs	r0, #0
 8001628:	14e0      	asrs	r0, r4, #19
 800162a:	2000      	movs	r0, #0
 800162c:	b513      	push	{r0, r1, r4, lr}
 800162e:	2400      	movs	r4, #0
 8001630:	4b10      	ldr	r3, [pc, #64]	; (0x8001674)
 8001632:	9400      	str	r4, [sp, #0]
 8001634:	9301      	str	r3, [sp, #4]
 8001636:	2278      	movs	r2, #120	; 0x78
 8001638:	4623      	mov	r3, r4
 800163a:	490f      	ldr	r1, [pc, #60]	; (0x8001678)
 800163c:	480f      	ldr	r0, [pc, #60]	; (0x800167c)
 800163e:	f7ff fd77 	bl	0x8001130
 8001642:	2801      	cmp	r0, #1
 8001644:	d114      	bne.n	0x8001670
 8001646:	f04f 03bf 	mov.w	r3, #191	; 0xbf
 800164a:	f383 8811 	msr	BASEPRI, r3
 800164e:	f3bf 8f6f 	isb	sy
 8001652:	f3bf 8f4f 	dsb	sy
 8001656:	f04f 32ff 	mov.w	r2, #4294967295	; 0xffffffff
 800165a:	4b09      	ldr	r3, [pc, #36]	; (0x8001680)
 800165c:	601a      	str	r2, [r3, #0]
 800165e:	4b09      	ldr	r3, [pc, #36]	; (0x8001684)
 8001660:	6018      	str	r0, [r3, #0]
 8001662:	4b09      	ldr	r3, [pc, #36]	; (0x8001688)
 8001664:	601c      	str	r4, [r3, #0]
 8001666:	b002      	add	sp, #8
 8001668:	e8bd 4010 	ldmia.w	sp!, {r4, lr}
 800166c:	f7ff b8e4 	b.w	0x8000838
 8001670:	b002      	add	sp, #8
 8001672:	bd10      	pop	{r4, pc}
 8001674:	14d4      	asrs	r4, r2, #19
 8001676:	2000      	movs	r0, #0
 8001678:	6079      	str	r1, [r7, #4]
 800167a:	0800      	lsrs	r0, r0, #32
 800167c:	195d      	adds	r5, r3, r5
 800167e:	0800      	lsrs	r0, r0, #32
 8001680:	14d8      	asrs	r0, r3, #19
 8001682:	2000      	movs	r0, #0
 8001684:	14f4      	asrs	r4, r6, #19
 8001686:	2000      	movs	r0, #0
 8001688:	1520      	asrs	r0, r4, #20
 800168a:	2000      	movs	r0, #0
 800168c:	f04f 03bf 	mov.w	r3, #191	; 0xbf
 8001690:	f383 8811 	msr	BASEPRI, r3
 8001694:	f3bf 8f6f 	isb	sy
 8001698:	f3bf 8f4f 	dsb	sy
 800169c:	2200      	movs	r2, #0
 800169e:	4b02      	ldr	r3, [pc, #8]	; (0x80016a8)
 80016a0:	601a      	str	r2, [r3, #0]
 80016a2:	f7ff b85f 	b.w	0x8000764
 80016a6:	bf00      	nop
 80016a8:	14f4      	asrs	r4, r6, #19
 80016aa:	2000      	movs	r0, #0
 80016ac:	4a02      	ldr	r2, [pc, #8]	; (0x80016b8)
 80016ae:	6813      	ldr	r3, [r2, #0]
 80016b0:	3301      	adds	r3, #1
 80016b2:	6013      	str	r3, [r2, #0]
 80016b4:	4770      	bx	lr
 80016b6:	bf00      	nop
 80016b8:	14a0      	asrs	r0, r4, #18
 80016ba:	2000      	movs	r0, #0
 80016bc:	4b01      	ldr	r3, [pc, #4]	; (0x80016c4)
 80016be:	6818      	ldr	r0, [r3, #0]
 80016c0:	4770      	bx	lr
 80016c2:	bf00      	nop
 80016c4:	1520      	asrs	r0, r4, #20
 80016c6:	2000      	movs	r0, #0
 80016c8:	4b01      	ldr	r3, [pc, #4]	; (0x80016d0)
 80016ca:	6818      	ldr	r0, [r3, #0]
 80016cc:	4770      	bx	lr
 80016ce:	bf00      	nop
 80016d0:	1520      	asrs	r0, r4, #20
 80016d2:	2000      	movs	r0, #0
 80016d4:	4b01      	ldr	r3, [pc, #4]	; (0x80016dc)
 80016d6:	6818      	ldr	r0, [r3, #0]
 80016d8:	4770      	bx	lr
 80016da:	bf00      	nop
 80016dc:	1494      	asrs	r4, r2, #18
 80016de:	2000      	movs	r0, #0
 80016e0:	b908      	cbnz	r0, 0x80016e6
 80016e2:	4b02      	ldr	r3, [pc, #8]	; (0x80016ec)
 80016e4:	6818      	ldr	r0, [r3, #0]
 80016e6:	3034      	adds	r0, #52	; 0x34
 80016e8:	4770      	bx	lr
 80016ea:	bf00      	nop
 80016ec:	1424      	asrs	r4, r4, #16
 80016ee:	2000      	movs	r0, #0
 80016f0:	e92d 4ff8 	stmdb	sp!, {r3, r4, r5, r6, r7, r8, r9, sl, fp, lr}
 80016f4:	4b36      	ldr	r3, [pc, #216]	; (0x80017d0)
 80016f6:	681b      	ldr	r3, [r3, #0]
 80016f8:	2b00      	cmp	r3, #0
 80016fa:	d147      	bne.n	0x800178c
 80016fc:	4b35      	ldr	r3, [pc, #212]	; (0x80017d4)
 80016fe:	681c      	ldr	r4, [r3, #0]
 8001700:	3401      	adds	r4, #1
 8001702:	601c      	str	r4, [r3, #0]
 8001704:	b95c      	cbnz	r4, 0x800171e
 8001706:	4a34      	ldr	r2, [pc, #208]	; (0x80017d8)
 8001708:	4b34      	ldr	r3, [pc, #208]	; (0x80017dc)
 800170a:	6811      	ldr	r1, [r2, #0]
 800170c:	6818      	ldr	r0, [r3, #0]
 800170e:	6010      	str	r0, [r2, #0]
 8001710:	4a33      	ldr	r2, [pc, #204]	; (0x80017e0)
 8001712:	6019      	str	r1, [r3, #0]
 8001714:	6813      	ldr	r3, [r2, #0]
 8001716:	3301      	adds	r3, #1
 8001718:	6013      	str	r3, [r2, #0]
 800171a:	f7ff fcb1 	bl	0x8001080
 800171e:	4d31      	ldr	r5, [pc, #196]	; (0x80017e4)
 8001720:	f04f 0b00 	mov.w	fp, #0
 8001724:	682b      	ldr	r3, [r5, #0]
 8001726:	4f30      	ldr	r7, [pc, #192]	; (0x80017e8)
 8001728:	429c      	cmp	r4, r3
 800172a:	d33e      	bcc.n	0x80017aa
 800172c:	f8df 80a8 	ldr.w	r8, [pc, #168]	; 0x80017d8
 8001730:	f8df 90c4 	ldr.w	r9, [pc, #196]	; 0x80017f8
 8001734:	f8d8 2000 	ldr.w	r2, [r8]
 8001738:	6812      	ldr	r2, [r2, #0]
 800173a:	bb72      	cbnz	r2, 0x800179a
 800173c:	f04f 32ff 	mov.w	r2, #4294967295	; 0xffffffff
 8001740:	602a      	str	r2, [r5, #0]
 8001742:	e032      	b.n	0x80017aa
 8001744:	f106 0a04 	add.w	sl, r6, #4
 8001748:	4650      	mov	r0, sl
 800174a:	f7fe ffaf 	bl	0x80006ac
 800174e:	6ab1      	ldr	r1, [r6, #40]	; 0x28
 8001750:	b119      	cbz	r1, 0x800175a
 8001752:	f106 0018 	add.w	r0, r6, #24
 8001756:	f7fe ffa9 	bl	0x80006ac
 800175a:	2201      	movs	r2, #1
 800175c:	f04f 0e14 	mov.w	lr, #20
 8001760:	6af0      	ldr	r0, [r6, #44]	; 0x2c
 8001762:	f8d9 3000 	ldr.w	r3, [r9]
 8001766:	fa02 f100 	lsl.w	r1, r2, r0
 800176a:	4319      	orrs	r1, r3
 800176c:	4b1f      	ldr	r3, [pc, #124]	; (0x80017ec)
 800176e:	f8c9 1000 	str.w	r1, [r9]
 8001772:	fb0e 3000 	mla	r0, lr, r0, r3
 8001776:	4651      	mov	r1, sl
 8001778:	f7fe ff75 	bl	0x8000666
 800177c:	6838      	ldr	r0, [r7, #0]
 800177e:	6af1      	ldr	r1, [r6, #44]	; 0x2c
 8001780:	6ac2      	ldr	r2, [r0, #44]	; 0x2c
 8001782:	4291      	cmp	r1, r2
 8001784:	bf28      	it	cs
 8001786:	f04f 0b01 	movcs.w	fp, #1
 800178a:	e7d3      	b.n	0x8001734
 800178c:	4a18      	ldr	r2, [pc, #96]	; (0x80017f0)
 800178e:	f04f 0b00 	mov.w	fp, #0
 8001792:	6813      	ldr	r3, [r2, #0]
 8001794:	3301      	adds	r3, #1
 8001796:	6013      	str	r3, [r2, #0]
 8001798:	e011      	b.n	0x80017be
 800179a:	f8d8 2000 	ldr.w	r2, [r8]
 800179e:	68d2      	ldr	r2, [r2, #12]
 80017a0:	68d6      	ldr	r6, [r2, #12]
 80017a2:	6871      	ldr	r1, [r6, #4]
 80017a4:	428c      	cmp	r4, r1
 80017a6:	d2cd      	bcs.n	0x8001744
 80017a8:	6029      	str	r1, [r5, #0]
 80017aa:	683a      	ldr	r2, [r7, #0]
 80017ac:	4b0f      	ldr	r3, [pc, #60]	; (0x80017ec)
 80017ae:	6ad1      	ldr	r1, [r2, #44]	; 0x2c
 80017b0:	2214      	movs	r2, #20
 80017b2:	434a      	muls	r2, r1
 80017b4:	589a      	ldr	r2, [r3, r2]
 80017b6:	2a02      	cmp	r2, #2
 80017b8:	bf28      	it	cs
 80017ba:	f04f 0b01 	movcs.w	fp, #1
 80017be:	4a0d      	ldr	r2, [pc, #52]	; (0x80017f4)
 80017c0:	6812      	ldr	r2, [r2, #0]
 80017c2:	2a00      	cmp	r2, #0
 80017c4:	bf18      	it	ne
 80017c6:	f04f 0b01 	movne.w	fp, #1
 80017ca:	4658      	mov	r0, fp
 80017cc:	e8bd 8ff8 	ldmia.w	sp!, {r3, r4, r5, r6, r7, r8, r9, sl, fp, pc}
 80017d0:	14a0      	asrs	r0, r4, #18
 80017d2:	2000      	movs	r0, #0
 80017d4:	1520      	asrs	r0, r4, #20
 80017d6:	2000      	movs	r0, #0
 80017d8:	1428      	asrs	r0, r5, #16
 80017da:	2000      	movs	r0, #0
 80017dc:	142c      	asrs	r4, r5, #16
 80017de:	2000      	movs	r0, #0
 80017e0:	14dc      	asrs	r4, r3, #19
 80017e2:	2000      	movs	r0, #0
 80017e4:	14d8      	asrs	r0, r3, #19
 80017e6:	2000      	movs	r0, #0
 80017e8:	1424      	asrs	r4, r4, #16
 80017ea:	2000      	movs	r0, #0
 80017ec:	1430      	asrs	r0, r6, #16
 80017ee:	2000      	movs	r0, #0
 80017f0:	149c      	asrs	r4, r3, #18
 80017f2:	2000      	movs	r0, #0
 80017f4:	1524      	asrs	r4, r4, #20
 80017f6:	2000      	movs	r0, #0
 80017f8:	14a8      	asrs	r0, r5, #18
 80017fa:	2000      	movs	r0, #0
 80017fc:	e92d 43f8 	stmdb	sp!, {r3, r4, r5, r6, r7, r8, r9, lr}
 8001800:	f7fe ffb2 	bl	0x8000768
 8001804:	4b2a      	ldr	r3, [pc, #168]	; (0x80018b0)
 8001806:	681a      	ldr	r2, [r3, #0]
 8001808:	3a01      	subs	r2, #1
 800180a:	601a      	str	r2, [r3, #0]
 800180c:	681c      	ldr	r4, [r3, #0]
 800180e:	b12c      	cbz	r4, 0x800181c
 8001810:	2400      	movs	r4, #0
 8001812:	f7fe ffb9 	bl	0x8000788
 8001816:	4620      	mov	r0, r4
 8001818:	e8bd 83f8 	ldmia.w	sp!, {r3, r4, r5, r6, r7, r8, r9, pc}
 800181c:	4b25      	ldr	r3, [pc, #148]	; (0x80018b4)
 800181e:	681b      	ldr	r3, [r3, #0]
 8001820:	2b00      	cmp	r3, #0
 8001822:	d0f5      	beq.n	0x8001810
 8001824:	f8df 90a4 	ldr.w	r9, [pc, #164]	; 0x80018cc
 8001828:	4f23      	ldr	r7, [pc, #140]	; (0x80018b8)
 800182a:	f8df 80a4 	ldr.w	r8, [pc, #164]	; 0x80018d0
 800182e:	f8d9 3000 	ldr.w	r3, [r9]
 8001832:	b9e3      	cbnz	r3, 0x800186e
 8001834:	b10c      	cbz	r4, 0x800183a
 8001836:	f7ff fc23 	bl	0x8001080
 800183a:	4d20      	ldr	r5, [pc, #128]	; (0x80018bc)
 800183c:	682c      	ldr	r4, [r5, #0]
 800183e:	b144      	cbz	r4, 0x8001852
 8001840:	2701      	movs	r7, #1
 8001842:	4e1f      	ldr	r6, [pc, #124]	; (0x80018c0)
 8001844:	f7ff ff54 	bl	0x80016f0
 8001848:	b100      	cbz	r0, 0x800184c
 800184a:	6037      	str	r7, [r6, #0]
 800184c:	3c01      	subs	r4, #1
 800184e:	d1f9      	bne.n	0x8001844
 8001850:	602c      	str	r4, [r5, #0]
 8001852:	4b1b      	ldr	r3, [pc, #108]	; (0x80018c0)
 8001854:	681b      	ldr	r3, [r3, #0]
 8001856:	2b00      	cmp	r3, #0
 8001858:	d0da      	beq.n	0x8001810
 800185a:	f04f 5280 	mov.w	r2, #268435456	; 0x10000000
 800185e:	4b19      	ldr	r3, [pc, #100]	; (0x80018c4)
 8001860:	601a      	str	r2, [r3, #0]
 8001862:	f3bf 8f4f 	dsb	sy
 8001866:	f3bf 8f6f 	isb	sy
 800186a:	2401      	movs	r4, #1
 800186c:	e7d1      	b.n	0x8001812
 800186e:	f8d9 300c 	ldr.w	r3, [r9, #12]
 8001872:	2501      	movs	r5, #1
 8001874:	68dc      	ldr	r4, [r3, #12]
 8001876:	1d26      	adds	r6, r4, #4
 8001878:	f104 0018 	add.w	r0, r4, #24
 800187c:	f7fe ff16 	bl	0x80006ac
 8001880:	4630      	mov	r0, r6
 8001882:	f7fe ff13 	bl	0x80006ac
 8001886:	2014      	movs	r0, #20
 8001888:	6ae2      	ldr	r2, [r4, #44]	; 0x2c
 800188a:	6839      	ldr	r1, [r7, #0]
 800188c:	fa05 f302 	lsl.w	r3, r5, r2
 8001890:	430b      	orrs	r3, r1
 8001892:	fb00 8002 	mla	r0, r0, r2, r8
 8001896:	4631      	mov	r1, r6
 8001898:	603b      	str	r3, [r7, #0]
 800189a:	f7fe fee4 	bl	0x8000666
 800189e:	4b0a      	ldr	r3, [pc, #40]	; (0x80018c8)
 80018a0:	6ae2      	ldr	r2, [r4, #44]	; 0x2c
 80018a2:	681b      	ldr	r3, [r3, #0]
 80018a4:	6adb      	ldr	r3, [r3, #44]	; 0x2c
 80018a6:	429a      	cmp	r2, r3
 80018a8:	bf24      	itt	cs
 80018aa:	4b05      	ldrcs	r3, [pc, #20]	; (0x80018c0)
 80018ac:	601d      	strcs	r5, [r3, #0]
 80018ae:	e7be      	b.n	0x800182e
 80018b0:	14a0      	asrs	r0, r4, #18
 80018b2:	2000      	movs	r0, #0
 80018b4:	1494      	asrs	r4, r2, #18
 80018b6:	2000      	movs	r0, #0
 80018b8:	14a8      	asrs	r0, r5, #18
 80018ba:	2000      	movs	r0, #0
 80018bc:	149c      	asrs	r4, r3, #18
 80018be:	2000      	movs	r0, #0
 80018c0:	1524      	asrs	r4, r4, #20
 80018c2:	2000      	movs	r0, #0
 80018c4:	ed04 e000 	stc	0, cr14, [r4, #-0]
 80018c8:	1424      	asrs	r4, r4, #16
 80018ca:	2000      	movs	r0, #0
 80018cc:	14e0      	asrs	r0, r4, #19
 80018ce:	2000      	movs	r0, #0
 80018d0:	1430      	asrs	r0, r6, #16
 80018d2:	2000      	movs	r0, #0
 80018d4:	b510      	push	{r4, lr}
 80018d6:	f7ff fee9 	bl	0x80016ac
 80018da:	4b12      	ldr	r3, [pc, #72]	; (0x8001924)
 80018dc:	6804      	ldr	r4, [r0, #0]
 80018de:	681a      	ldr	r2, [r3, #0]
 80018e0:	1863      	adds	r3, r4, r1
 80018e2:	42a2      	cmp	r2, r4
 80018e4:	d217      	bcs.n	0x8001916
 80018e6:	429c      	cmp	r4, r3
 80018e8:	d919      	bls.n	0x800191e
 80018ea:	429a      	cmp	r2, r3
 80018ec:	bf2c      	ite	cs
 80018ee:	2100      	movcs	r1, #0
 80018f0:	2101      	movcc	r1, #1
 80018f2:	6003      	str	r3, [r0, #0]
 80018f4:	b119      	cbz	r1, 0x80018fe
 80018f6:	2100      	movs	r1, #0
 80018f8:	1a98      	subs	r0, r3, r2
 80018fa:	f7ff fbd3 	bl	0x80010a4
 80018fe:	f7ff ff7d 	bl	0x80017fc
 8001902:	b938      	cbnz	r0, 0x8001914
 8001904:	f04f 5280 	mov.w	r2, #268435456	; 0x10000000
 8001908:	4b07      	ldr	r3, [pc, #28]	; (0x8001928)
 800190a:	601a      	str	r2, [r3, #0]
 800190c:	f3bf 8f4f 	dsb	sy
 8001910:	f3bf 8f6f 	isb	sy
 8001914:	bd10      	pop	{r4, pc}
 8001916:	429c      	cmp	r4, r3
 8001918:	d9e7      	bls.n	0x80018ea
 800191a:	2101      	movs	r1, #1
 800191c:	e7e9      	b.n	0x80018f2
 800191e:	2100      	movs	r1, #0
 8001920:	e7e7      	b.n	0x80018f2
 8001922:	bf00      	nop
 8001924:	1520      	asrs	r0, r4, #20
 8001926:	2000      	movs	r0, #0
 8001928:	ed04 e000 	stc	0, cr14, [r4, #-0]
 800192c:	b508      	push	{r3, lr}
 800192e:	b940      	cbnz	r0, 0x8001942
 8001930:	f04f 5280 	mov.w	r2, #268435456	; 0x10000000
 8001934:	4b08      	ldr	r3, [pc, #32]	; (0x8001958)
 8001936:	601a      	str	r2, [r3, #0]
 8001938:	f3bf 8f4f 	dsb	sy
 800193c:	f3bf 8f6f 	isb	sy
 8001940:	bd08      	pop	{r3, pc}
 8001942:	f7ff feb3 	bl	0x80016ac
 8001946:	2100      	movs	r1, #0
 8001948:	f7ff fbac 	bl	0x80010a4
 800194c:	f7ff ff56 	bl	0x80017fc
 8001950:	2800      	cmp	r0, #0
 8001952:	d0ed      	beq.n	0x8001930
 8001954:	bd08      	pop	{r3, pc}
 8001956:	bf00      	nop
 8001958:	ed04 e000 	stc	0, cr14, [r4, #-0]
 800195c:	b508      	push	{r3, lr}
 800195e:	4e17      	ldr	r6, [pc, #92]	; (0x80019bc)
 8001960:	4c17      	ldr	r4, [pc, #92]	; (0x80019c0)
 8001962:	6823      	ldr	r3, [r4, #0]
 8001964:	b963      	cbnz	r3, 0x8001980
 8001966:	4b17      	ldr	r3, [pc, #92]	; (0x80019c4)
 8001968:	681b      	ldr	r3, [r3, #0]
 800196a:	2b01      	cmp	r3, #1
 800196c:	d9f8      	bls.n	0x8001960
 800196e:	f04f 5280 	mov.w	r2, #268435456	; 0x10000000
 8001972:	4b15      	ldr	r3, [pc, #84]	; (0x80019c8)
 8001974:	601a      	str	r2, [r3, #0]
 8001976:	f3bf 8f4f 	dsb	sy
 800197a:	f3bf 8f6f 	isb	sy
 800197e:	e7ef      	b.n	0x8001960
 8001980:	f7ff fe94 	bl	0x80016ac
 8001984:	6835      	ldr	r5, [r6, #0]
 8001986:	f7ff ff39 	bl	0x80017fc
 800198a:	2d00      	cmp	r5, #0
 800198c:	d0e9      	beq.n	0x8001962
 800198e:	f7fe feeb 	bl	0x8000768
 8001992:	68f3      	ldr	r3, [r6, #12]
 8001994:	68dd      	ldr	r5, [r3, #12]
 8001996:	1d28      	adds	r0, r5, #4
 8001998:	f7fe fe88 	bl	0x80006ac
 800199c:	4a0b      	ldr	r2, [pc, #44]	; (0x80019cc)
 800199e:	6813      	ldr	r3, [r2, #0]
 80019a0:	3b01      	subs	r3, #1
 80019a2:	6013      	str	r3, [r2, #0]
 80019a4:	6823      	ldr	r3, [r4, #0]
 80019a6:	3b01      	subs	r3, #1
 80019a8:	6023      	str	r3, [r4, #0]
 80019aa:	f7fe feed 	bl	0x8000788
 80019ae:	6b28      	ldr	r0, [r5, #48]	; 0x30
 80019b0:	f7fe fe24 	bl	0x80005fc
 80019b4:	4628      	mov	r0, r5
 80019b6:	f7fe fe21 	bl	0x80005fc
 80019ba:	e7d2      	b.n	0x8001962
 80019bc:	150c      	asrs	r4, r1, #20
 80019be:	2000      	movs	r0, #0
 80019c0:	1498      	asrs	r0, r3, #18
 80019c2:	2000      	movs	r0, #0
 80019c4:	1430      	asrs	r0, r6, #16
 80019c6:	2000      	movs	r0, #0
 80019c8:	ed04 e000 	stc	0, cr14, [r4, #-0]
 80019cc:	1494      	asrs	r4, r2, #18
 80019ce:	2000      	movs	r0, #0
 80019d0:	4b12      	ldr	r3, [pc, #72]	; (0x8001a1c)
 80019d2:	b530      	push	{r4, r5, lr}
 80019d4:	681a      	ldr	r2, [r3, #0]
 80019d6:	4b12      	ldr	r3, [pc, #72]	; (0x8001a20)
 80019d8:	b112      	cbz	r2, 0x80019e0
 80019da:	2201      	movs	r2, #1
 80019dc:	601a      	str	r2, [r3, #0]
 80019de:	bd30      	pop	{r4, r5, pc}
 80019e0:	601a      	str	r2, [r3, #0]
 80019e2:	4b10      	ldr	r3, [pc, #64]	; (0x8001a24)
 80019e4:	681b      	ldr	r3, [r3, #0]
 80019e6:	fab3 f383 	clz	r3, r3
 80019ea:	2014      	movs	r0, #20
 80019ec:	b2db      	uxtb	r3, r3
 80019ee:	f1c3 031f 	rsb	r3, r3, #31
 80019f2:	fb00 f203 	mul.w	r2, r0, r3
 80019f6:	490c      	ldr	r1, [pc, #48]	; (0x8001a28)
 80019f8:	188c      	adds	r4, r1, r2
 80019fa:	6865      	ldr	r5, [r4, #4]
 80019fc:	3208      	adds	r2, #8
 80019fe:	686d      	ldr	r5, [r5, #4]
 8001a00:	440a      	add	r2, r1
 8001a02:	4295      	cmp	r5, r2
 8001a04:	fb00 1303 	mla	r3, r0, r3, r1
 8001a08:	bf08      	it	eq
 8001a0a:	686a      	ldreq	r2, [r5, #4]
 8001a0c:	6065      	str	r5, [r4, #4]
 8001a0e:	bf08      	it	eq
 8001a10:	6062      	streq	r2, [r4, #4]
 8001a12:	685b      	ldr	r3, [r3, #4]
 8001a14:	68da      	ldr	r2, [r3, #12]
 8001a16:	4b05      	ldr	r3, [pc, #20]	; (0x8001a2c)
 8001a18:	e7e0      	b.n	0x80019dc
 8001a1a:	bf00      	nop
 8001a1c:	14a0      	asrs	r0, r4, #18
 8001a1e:	2000      	movs	r0, #0
 8001a20:	1524      	asrs	r4, r4, #20
 8001a22:	2000      	movs	r0, #0
 8001a24:	14a8      	asrs	r0, r5, #18
 8001a26:	2000      	movs	r0, #0
 8001a28:	1430      	asrs	r0, r6, #16
 8001a2a:	2000      	movs	r0, #0
 8001a2c:	1424      	asrs	r4, r4, #16
 8001a2e:	2000      	movs	r0, #0
 8001a30:	b570      	push	{r4, r5, r6, lr}
 8001a32:	4604      	mov	r4, r0
 8001a34:	4e26      	ldr	r6, [pc, #152]	; (0x8001ad0)
 8001a36:	f7fe fe97 	bl	0x8000768
 8001a3a:	b904      	cbnz	r4, 0x8001a3e
 8001a3c:	6834      	ldr	r4, [r6, #0]
 8001a3e:	1d25      	adds	r5, r4, #4
 8001a40:	4628      	mov	r0, r5
 8001a42:	f7fe fe33 	bl	0x80006ac
 8001a46:	b960      	cbnz	r0, 0x8001a62
 8001a48:	2114      	movs	r1, #20
 8001a4a:	6ae0      	ldr	r0, [r4, #44]	; 0x2c
 8001a4c:	4b21      	ldr	r3, [pc, #132]	; (0x8001ad4)
 8001a4e:	4341      	muls	r1, r0
 8001a50:	585b      	ldr	r3, [r3, r1]
 8001a52:	b933      	cbnz	r3, 0x8001a62
 8001a54:	2201      	movs	r2, #1
 8001a56:	4920      	ldr	r1, [pc, #128]	; (0x8001ad8)
 8001a58:	4082      	lsls	r2, r0
 8001a5a:	680b      	ldr	r3, [r1, #0]
 8001a5c:	ea23 0302 	bic.w	r3, r3, r2
 8001a60:	600b      	str	r3, [r1, #0]
 8001a62:	6aa3      	ldr	r3, [r4, #40]	; 0x28
 8001a64:	b11b      	cbz	r3, 0x8001a6e
 8001a66:	f104 0018 	add.w	r0, r4, #24
 8001a6a:	f7fe fe1f 	bl	0x80006ac
 8001a6e:	4629      	mov	r1, r5
 8001a70:	481a      	ldr	r0, [pc, #104]	; (0x8001adc)
 8001a72:	f7fe fdf8 	bl	0x8000666
 8001a76:	f894 3058 	ldrb.w	r3, [r4, #88]	; 0x58
 8001a7a:	4d19      	ldr	r5, [pc, #100]	; (0x8001ae0)
 8001a7c:	2b01      	cmp	r3, #1
 8001a7e:	bf04      	itt	eq
 8001a80:	2300      	moveq	r3, #0
 8001a82:	f884 3058 	strbeq.w	r3, [r4, #88]	; 0x58
 8001a86:	f7fe fe7f 	bl	0x8000788
 8001a8a:	682a      	ldr	r2, [r5, #0]
 8001a8c:	b12a      	cbz	r2, 0x8001a9a
 8001a8e:	f7fe fe6b 	bl	0x8000768
 8001a92:	f7ff faf5 	bl	0x8001080
 8001a96:	f7fe fe77 	bl	0x8000788
 8001a9a:	6833      	ldr	r3, [r6, #0]
 8001a9c:	429c      	cmp	r4, r3
 8001a9e:	d116      	bne.n	0x8001ace
 8001aa0:	682b      	ldr	r3, [r5, #0]
 8001aa2:	b143      	cbz	r3, 0x8001ab6
 8001aa4:	f04f 5280 	mov.w	r2, #268435456	; 0x10000000
 8001aa8:	4b0e      	ldr	r3, [pc, #56]	; (0x8001ae4)
 8001aaa:	601a      	str	r2, [r3, #0]
 8001aac:	f3bf 8f4f 	dsb	sy
 8001ab0:	f3bf 8f6f 	isb	sy
 8001ab4:	bd70      	pop	{r4, r5, r6, pc}
 8001ab6:	4a09      	ldr	r2, [pc, #36]	; (0x8001adc)
 8001ab8:	6811      	ldr	r1, [r2, #0]
 8001aba:	4a0b      	ldr	r2, [pc, #44]	; (0x8001ae8)
 8001abc:	6812      	ldr	r2, [r2, #0]
 8001abe:	4291      	cmp	r1, r2
 8001ac0:	d101      	bne.n	0x8001ac6
 8001ac2:	6033      	str	r3, [r6, #0]
 8001ac4:	bd70      	pop	{r4, r5, r6, pc}
 8001ac6:	e8bd 4070 	ldmia.w	sp!, {r4, r5, r6, lr}
 8001aca:	f7ff bf81 	b.w	0x80019d0
 8001ace:	bd70      	pop	{r4, r5, r6, pc}
 8001ad0:	1424      	asrs	r4, r4, #16
 8001ad2:	2000      	movs	r0, #0
 8001ad4:	1430      	asrs	r0, r6, #16
 8001ad6:	2000      	movs	r0, #0
 8001ad8:	14a8      	asrs	r0, r5, #18
 8001ada:	2000      	movs	r0, #0
 8001adc:	14f8      	asrs	r0, r7, #19
 8001ade:	2000      	movs	r0, #0
 8001ae0:	14f4      	asrs	r4, r6, #19
 8001ae2:	2000      	movs	r0, #0
 8001ae4:	ed04 e000 	stc	0, cr14, [r4, #-0]
 8001ae8:	1494      	asrs	r4, r2, #18
 8001aea:	2000      	movs	r0, #0
 8001aec:	b510      	push	{r4, lr}
 8001aee:	460c      	mov	r4, r1
 8001af0:	4b05      	ldr	r3, [pc, #20]	; (0x8001b08)
 8001af2:	6819      	ldr	r1, [r3, #0]
 8001af4:	3118      	adds	r1, #24
 8001af6:	f7fe fdc2 	bl	0x800067e
 8001afa:	4620      	mov	r0, r4
 8001afc:	e8bd 4010 	ldmia.w	sp!, {r4, lr}
 8001b00:	2101      	movs	r1, #1
 8001b02:	f7ff bacf 	b.w	0x80010a4
 8001b06:	bf00      	nop
 8001b08:	1424      	asrs	r4, r4, #16
 8001b0a:	2000      	movs	r0, #0
 8001b0c:	b510      	push	{r4, lr}
 8001b0e:	4614      	mov	r4, r2
 8001b10:	4b07      	ldr	r3, [pc, #28]	; (0x8001b30)
 8001b12:	f041 4100 	orr.w	r1, r1, #2147483648	; 0x80000000
 8001b16:	681a      	ldr	r2, [r3, #0]
 8001b18:	6191      	str	r1, [r2, #24]
 8001b1a:	6819      	ldr	r1, [r3, #0]
 8001b1c:	3118      	adds	r1, #24
 8001b1e:	f7fe fda2 	bl	0x8000666
 8001b22:	4620      	mov	r0, r4
 8001b24:	e8bd 4010 	ldmia.w	sp!, {r4, lr}
 8001b28:	2101      	movs	r1, #1
 8001b2a:	f7ff babb 	b.w	0x80010a4
 8001b2e:	bf00      	nop
 8001b30:	1424      	asrs	r4, r4, #16
 8001b32:	2000      	movs	r0, #0
 8001b34:	b538      	push	{r3, r4, r5, lr}
 8001b36:	68c3      	ldr	r3, [r0, #12]
 8001b38:	68dc      	ldr	r4, [r3, #12]
 8001b3a:	f104 0518 	add.w	r5, r4, #24
 8001b3e:	4628      	mov	r0, r5
 8001b40:	f7fe fdb4 	bl	0x80006ac
 8001b44:	4b11      	ldr	r3, [pc, #68]	; (0x8001b8c)
 8001b46:	681b      	ldr	r3, [r3, #0]
 8001b48:	b9e3      	cbnz	r3, 0x8001b84
 8001b4a:	1d25      	adds	r5, r4, #4
 8001b4c:	4628      	mov	r0, r5
 8001b4e:	f7fe fdad 	bl	0x80006ac
 8001b52:	2301      	movs	r3, #1
 8001b54:	490e      	ldr	r1, [pc, #56]	; (0x8001b90)
 8001b56:	6ae2      	ldr	r2, [r4, #44]	; 0x2c
 8001b58:	6808      	ldr	r0, [r1, #0]
 8001b5a:	4093      	lsls	r3, r2
 8001b5c:	4303      	orrs	r3, r0
 8001b5e:	2014      	movs	r0, #20
 8001b60:	600b      	str	r3, [r1, #0]
 8001b62:	4629      	mov	r1, r5
 8001b64:	4b0b      	ldr	r3, [pc, #44]	; (0x8001b94)
 8001b66:	fb00 3002 	mla	r0, r0, r2, r3
 8001b6a:	f7fe fd7c 	bl	0x8000666
 8001b6e:	4b0a      	ldr	r3, [pc, #40]	; (0x8001b98)
 8001b70:	6ae2      	ldr	r2, [r4, #44]	; 0x2c
 8001b72:	681b      	ldr	r3, [r3, #0]
 8001b74:	6adb      	ldr	r3, [r3, #44]	; 0x2c
 8001b76:	429a      	cmp	r2, r3
 8001b78:	bf85      	ittet	hi
 8001b7a:	2001      	movhi	r0, #1
 8001b7c:	4b07      	ldrhi	r3, [pc, #28]	; (0x8001b9c)
 8001b7e:	2000      	movls	r0, #0
 8001b80:	6018      	strhi	r0, [r3, #0]
 8001b82:	bd38      	pop	{r3, r4, r5, pc}
 8001b84:	4629      	mov	r1, r5
 8001b86:	4806      	ldr	r0, [pc, #24]	; (0x8001ba0)
 8001b88:	e7ef      	b.n	0x8001b6a
 8001b8a:	bf00      	nop
 8001b8c:	14a0      	asrs	r0, r4, #18
 8001b8e:	2000      	movs	r0, #0
 8001b90:	14a8      	asrs	r0, r5, #18
 8001b92:	2000      	movs	r0, #0
 8001b94:	1430      	asrs	r0, r6, #16
 8001b96:	2000      	movs	r0, #0
 8001b98:	1424      	asrs	r4, r4, #16
 8001b9a:	2000      	movs	r0, #0
 8001b9c:	1524      	asrs	r4, r4, #20
 8001b9e:	2000      	movs	r0, #0
 8001ba0:	14e0      	asrs	r0, r4, #19
 8001ba2:	2000      	movs	r0, #0
 8001ba4:	b570      	push	{r4, r5, r6, lr}
 8001ba6:	2501      	movs	r5, #1
 8001ba8:	68c4      	ldr	r4, [r0, #12]
 8001baa:	f041 4100 	orr.w	r1, r1, #2147483648	; 0x80000000
 8001bae:	6001      	str	r1, [r0, #0]
 8001bb0:	1d26      	adds	r6, r4, #4
 8001bb2:	f7fe fd7b 	bl	0x80006ac
 8001bb6:	4630      	mov	r0, r6
 8001bb8:	f7fe fd78 	bl	0x80006ac
 8001bbc:	490b      	ldr	r1, [pc, #44]	; (0x8001bec)
 8001bbe:	6ae2      	ldr	r2, [r4, #44]	; 0x2c
 8001bc0:	6808      	ldr	r0, [r1, #0]
 8001bc2:	fa05 f302 	lsl.w	r3, r5, r2
 8001bc6:	4303      	orrs	r3, r0
 8001bc8:	2014      	movs	r0, #20
 8001bca:	600b      	str	r3, [r1, #0]
 8001bcc:	4b08      	ldr	r3, [pc, #32]	; (0x8001bf0)
 8001bce:	4631      	mov	r1, r6
 8001bd0:	fb00 3002 	mla	r0, r0, r2, r3
 8001bd4:	f7fe fd47 	bl	0x8000666
 8001bd8:	4b06      	ldr	r3, [pc, #24]	; (0x8001bf4)
 8001bda:	6ae2      	ldr	r2, [r4, #44]	; 0x2c
 8001bdc:	681b      	ldr	r3, [r3, #0]
 8001bde:	6adb      	ldr	r3, [r3, #44]	; 0x2c
 8001be0:	429a      	cmp	r2, r3
 8001be2:	bf84      	itt	hi
 8001be4:	4b04      	ldrhi	r3, [pc, #16]	; (0x8001bf8)
 8001be6:	601d      	strhi	r5, [r3, #0]
 8001be8:	bd70      	pop	{r4, r5, r6, pc}
 8001bea:	bf00      	nop
 8001bec:	14a8      	asrs	r0, r5, #18
 8001bee:	2000      	movs	r0, #0
 8001bf0:	1430      	asrs	r0, r6, #16
 8001bf2:	2000      	movs	r0, #0
 8001bf4:	1424      	asrs	r4, r4, #16
 8001bf6:	2000      	movs	r0, #0
 8001bf8:	1524      	asrs	r4, r4, #20
 8001bfa:	2000      	movs	r0, #0
 8001bfc:	b510      	push	{r4, lr}
 8001bfe:	4604      	mov	r4, r0
 8001c00:	f7fe fdb2 	bl	0x8000768
 8001c04:	4b04      	ldr	r3, [pc, #16]	; (0x8001c18)
 8001c06:	681b      	ldr	r3, [r3, #0]
 8001c08:	6023      	str	r3, [r4, #0]
 8001c0a:	4b04      	ldr	r3, [pc, #16]	; (0x8001c1c)
 8001c0c:	681b      	ldr	r3, [r3, #0]
 8001c0e:	6063      	str	r3, [r4, #4]
 8001c10:	e8bd 4010 	ldmia.w	sp!, {r4, lr}
 8001c14:	f7fe bdb8 	b.w	0x8000788
 8001c18:	14dc      	asrs	r4, r3, #19
 8001c1a:	2000      	movs	r0, #0
 8001c1c:	1520      	asrs	r0, r4, #20
 8001c1e:	2000      	movs	r0, #0
 8001c20:	4b03      	ldr	r3, [pc, #12]	; (0x8001c30)
 8001c22:	681b      	ldr	r3, [r3, #0]
 8001c24:	6003      	str	r3, [r0, #0]
 8001c26:	4b03      	ldr	r3, [pc, #12]	; (0x8001c34)
 8001c28:	681b      	ldr	r3, [r3, #0]
 8001c2a:	6043      	str	r3, [r0, #4]
 8001c2c:	4770      	bx	lr
 8001c2e:	bf00      	nop
 8001c30:	14dc      	asrs	r4, r3, #19
 8001c32:	2000      	movs	r0, #0
 8001c34:	1520      	asrs	r0, r4, #20
 8001c36:	2000      	movs	r0, #0
 8001c38:	b570      	push	{r4, r5, r6, lr}
 8001c3a:	460d      	mov	r5, r1
 8001c3c:	4604      	mov	r4, r0
 8001c3e:	f7fe fd93 	bl	0x8000768
 8001c42:	4b0e      	ldr	r3, [pc, #56]	; (0x8001c7c)
 8001c44:	681a      	ldr	r2, [r3, #0]
 8001c46:	682b      	ldr	r3, [r5, #0]
 8001c48:	1c59      	adds	r1, r3, #1
 8001c4a:	d00f      	beq.n	0x8001c6c
 8001c4c:	480c      	ldr	r0, [pc, #48]	; (0x8001c80)
 8001c4e:	6826      	ldr	r6, [r4, #0]
 8001c50:	6800      	ldr	r0, [r0, #0]
 8001c52:	6861      	ldr	r1, [r4, #4]
 8001c54:	4286      	cmp	r6, r0
 8001c56:	d001      	beq.n	0x8001c5c
 8001c58:	428a      	cmp	r2, r1
 8001c5a:	d20c      	bcs.n	0x8001c76
 8001c5c:	1a52      	subs	r2, r2, r1
 8001c5e:	429a      	cmp	r2, r3
 8001c60:	d209      	bcs.n	0x8001c76
 8001c62:	1a9b      	subs	r3, r3, r2
 8001c64:	602b      	str	r3, [r5, #0]
 8001c66:	4620      	mov	r0, r4
 8001c68:	f7ff ffda 	bl	0x8001c20
 8001c6c:	2400      	movs	r4, #0
 8001c6e:	f7fe fd8b 	bl	0x8000788
 8001c72:	4620      	mov	r0, r4
 8001c74:	bd70      	pop	{r4, r5, r6, pc}
 8001c76:	2401      	movs	r4, #1
 8001c78:	e7f9      	b.n	0x8001c6e
 8001c7a:	bf00      	nop
 8001c7c:	1520      	asrs	r0, r4, #20
 8001c7e:	2000      	movs	r0, #0
 8001c80:	14dc      	asrs	r4, r3, #19
 8001c82:	2000      	movs	r0, #0
 8001c84:	2201      	movs	r2, #1
 8001c86:	4b01      	ldr	r3, [pc, #4]	; (0x8001c8c)
 8001c88:	601a      	str	r2, [r3, #0]
 8001c8a:	4770      	bx	lr
 8001c8c:	1524      	asrs	r4, r4, #20
 8001c8e:	2000      	movs	r0, #0
 8001c90:	b100      	cbz	r0, 0x8001c94
 8001c92:	6c80      	ldr	r0, [r0, #72]	; 0x48
 8001c94:	4770      	bx	lr
 8001c96:	b100      	cbz	r0, 0x8001c9a
 8001c98:	6481      	str	r1, [r0, #72]	; 0x48
 8001c9a:	4770      	bx	lr
 8001c9c:	b570      	push	{r4, r5, r6, lr}
 8001c9e:	460c      	mov	r4, r1
 8001ca0:	4616      	mov	r6, r2
 8001ca2:	bb10      	cbnz	r0, 0x8001cea
 8001ca4:	4a1b      	ldr	r2, [pc, #108]	; (0x8001d14)
 8001ca6:	6815      	ldr	r5, [r2, #0]
 8001ca8:	f105 0234 	add.w	r2, r5, #52	; 0x34
 8001cac:	6062      	str	r2, [r4, #4]
 8001cae:	6aea      	ldr	r2, [r5, #44]	; 0x2c
 8001cb0:	2b05      	cmp	r3, #5
 8001cb2:	6122      	str	r2, [r4, #16]
 8001cb4:	6b2a      	ldr	r2, [r5, #48]	; 0x30
 8001cb6:	6025      	str	r5, [r4, #0]
 8001cb8:	61e2      	str	r2, [r4, #28]
 8001cba:	6c6a      	ldr	r2, [r5, #68]	; 0x44
 8001cbc:	60a2      	str	r2, [r4, #8]
 8001cbe:	6cea      	ldr	r2, [r5, #76]	; 0x4c
 8001cc0:	6162      	str	r2, [r4, #20]
 8001cc2:	f04f 0200 	mov.w	r2, #0
 8001cc6:	61a2      	str	r2, [r4, #24]
 8001cc8:	d01d      	beq.n	0x8001d06
 8001cca:	4912      	ldr	r1, [pc, #72]	; (0x8001d14)
 8001ccc:	6809      	ldr	r1, [r1, #0]
 8001cce:	428d      	cmp	r5, r1
 8001cd0:	d10d      	bne.n	0x8001cee
 8001cd2:	7322      	strb	r2, [r4, #12]
 8001cd4:	b1de      	cbz	r6, 0x8001d0e
 8001cd6:	6b29      	ldr	r1, [r5, #48]	; 0x30
 8001cd8:	460a      	mov	r2, r1
 8001cda:	1a53      	subs	r3, r2, r1
 8001cdc:	f812 0b01 	ldrb.w	r0, [r2], #1
 8001ce0:	28a5      	cmp	r0, #165	; 0xa5
 8001ce2:	d0fa      	beq.n	0x8001cda
 8001ce4:	089b      	lsrs	r3, r3, #2
 8001ce6:	8423      	strh	r3, [r4, #32]
 8001ce8:	bd70      	pop	{r4, r5, r6, pc}
 8001cea:	4605      	mov	r5, r0
 8001cec:	e7dc      	b.n	0x8001ca8
 8001cee:	2b03      	cmp	r3, #3
 8001cf0:	7323      	strb	r3, [r4, #12]
 8001cf2:	d1ef      	bne.n	0x8001cd4
 8001cf4:	f7ff fcda 	bl	0x80016ac
 8001cf8:	6aab      	ldr	r3, [r5, #40]	; 0x28
 8001cfa:	b10b      	cbz	r3, 0x8001d00
 8001cfc:	2302      	movs	r3, #2
 8001cfe:	7323      	strb	r3, [r4, #12]
 8001d00:	f7ff fd7c 	bl	0x80017fc
 8001d04:	e7e6      	b.n	0x8001cd4
 8001d06:	f7ff fb59 	bl	0x80013bc
 8001d0a:	7320      	strb	r0, [r4, #12]
 8001d0c:	e7e2      	b.n	0x8001cd4
 8001d0e:	8426      	strh	r6, [r4, #32]
 8001d10:	bd70      	pop	{r4, r5, r6, pc}
 8001d12:	bf00      	nop
 8001d14:	1424      	asrs	r4, r4, #16
 8001d16:	2000      	movs	r0, #0
 8001d18:	e92d 4ff8 	stmdb	sp!, {r3, r4, r5, r6, r7, r8, r9, sl, fp, lr}
 8001d1c:	680d      	ldr	r5, [r1, #0]
 8001d1e:	4681      	mov	r9, r0
 8001d20:	460c      	mov	r4, r1
 8001d22:	4692      	mov	sl, r2
 8001d24:	b31d      	cbz	r5, 0x8001d6e
 8001d26:	2500      	movs	r5, #0
 8001d28:	f04f 0b24 	mov.w	fp, #36	; 0x24
 8001d2c:	684b      	ldr	r3, [r1, #4]
 8001d2e:	f101 0708 	add.w	r7, r1, #8
 8001d32:	685b      	ldr	r3, [r3, #4]
 8001d34:	42bb      	cmp	r3, r7
 8001d36:	604b      	str	r3, [r1, #4]
 8001d38:	bf04      	itt	eq
 8001d3a:	68cb      	ldreq	r3, [r1, #12]
 8001d3c:	604b      	streq	r3, [r1, #4]
 8001d3e:	684b      	ldr	r3, [r1, #4]
 8001d40:	f8d3 800c 	ldr.w	r8, [r3, #12]
 8001d44:	6863      	ldr	r3, [r4, #4]
 8001d46:	fb0b 9105 	mla	r1, fp, r5, r9
 8001d4a:	685b      	ldr	r3, [r3, #4]
 8001d4c:	2201      	movs	r2, #1
 8001d4e:	429f      	cmp	r7, r3
 8001d50:	6063      	str	r3, [r4, #4]
 8001d52:	bf08      	it	eq
 8001d54:	68e3      	ldreq	r3, [r4, #12]
 8001d56:	f105 0501 	add.w	r5, r5, #1
 8001d5a:	bf08      	it	eq
 8001d5c:	6063      	streq	r3, [r4, #4]
 8001d5e:	6863      	ldr	r3, [r4, #4]
 8001d60:	68de      	ldr	r6, [r3, #12]
 8001d62:	4653      	mov	r3, sl
 8001d64:	4630      	mov	r0, r6
 8001d66:	f7ff ff99 	bl	0x8001c9c
 8001d6a:	45b0      	cmp	r8, r6
 8001d6c:	d1ea      	bne.n	0x8001d44
 8001d6e:	4628      	mov	r0, r5
 8001d70:	e8bd 8ff8 	ldmia.w	sp!, {r3, r4, r5, r6, r7, r8, r9, sl, fp, pc}
 8001d74:	e92d 43f8 	stmdb	sp!, {r3, r4, r5, r6, r7, r8, r9, lr}
 8001d78:	4605      	mov	r5, r0
 8001d7a:	4617      	mov	r7, r2
 8001d7c:	f7ff fc96 	bl	0x80016ac
 8001d80:	4b1f      	ldr	r3, [pc, #124]	; (0x8001e00)
 8001d82:	681b      	ldr	r3, [r3, #0]
 8001d84:	428b      	cmp	r3, r1
 8001d86:	d839      	bhi.n	0x8001dfc
 8001d88:	f04f 0800 	mov.w	r8, #0
 8001d8c:	2624      	movs	r6, #36	; 0x24
 8001d8e:	4644      	mov	r4, r8
 8001d90:	f8df 9080 	ldr.w	r9, [pc, #128]	; 0x8001e14
 8001d94:	f108 0150 	add.w	r1, r8, #80	; 0x50
 8001d98:	fb06 5004 	mla	r0, r6, r4, r5
 8001d9c:	2201      	movs	r2, #1
 8001d9e:	4449      	add	r1, r9
 8001da0:	f7ff ffba 	bl	0x8001d18
 8001da4:	f1a8 0814 	sub.w	r8, r8, #20
 8001da8:	f118 0f64 	cmn.w	r8, #100	; 0x64
 8001dac:	4404      	add	r4, r0
 8001dae:	d1f1      	bne.n	0x8001d94
 8001db0:	4b14      	ldr	r3, [pc, #80]	; (0x8001e04)
 8001db2:	2202      	movs	r2, #2
 8001db4:	6819      	ldr	r1, [r3, #0]
 8001db6:	fb06 5004 	mla	r0, r6, r4, r5
 8001dba:	f7ff ffad 	bl	0x8001d18
 8001dbe:	4b12      	ldr	r3, [pc, #72]	; (0x8001e08)
 8001dc0:	4404      	add	r4, r0
 8001dc2:	6819      	ldr	r1, [r3, #0]
 8001dc4:	2202      	movs	r2, #2
 8001dc6:	fb06 5004 	mla	r0, r6, r4, r5
 8001dca:	f7ff ffa5 	bl	0x8001d18
 8001dce:	4404      	add	r4, r0
 8001dd0:	2204      	movs	r2, #4
 8001dd2:	490e      	ldr	r1, [pc, #56]	; (0x8001e0c)
 8001dd4:	fb06 5004 	mla	r0, r6, r4, r5
 8001dd8:	f7ff ff9e 	bl	0x8001d18
 8001ddc:	4404      	add	r4, r0
 8001dde:	fb06 5004 	mla	r0, r6, r4, r5
 8001de2:	2203      	movs	r2, #3
 8001de4:	490a      	ldr	r1, [pc, #40]	; (0x8001e10)
 8001de6:	f7ff ff97 	bl	0x8001d18
 8001dea:	4404      	add	r4, r0
 8001dec:	b10f      	cbz	r7, 0x8001df2
 8001dee:	2300      	movs	r3, #0
 8001df0:	603b      	str	r3, [r7, #0]
 8001df2:	f7ff fd03 	bl	0x80017fc
 8001df6:	4620      	mov	r0, r4
 8001df8:	e8bd 83f8 	ldmia.w	sp!, {r3, r4, r5, r6, r7, r8, r9, pc}
 8001dfc:	2400      	movs	r4, #0
 8001dfe:	e7f8      	b.n	0x8001df2
 8001e00:	1494      	asrs	r4, r2, #18
 8001e02:	2000      	movs	r0, #0
 8001e04:	1428      	asrs	r0, r5, #16
 8001e06:	2000      	movs	r0, #0
 8001e08:	142c      	asrs	r4, r5, #16
 8001e0a:	2000      	movs	r0, #0
 8001e0c:	150c      	asrs	r4, r1, #20
 8001e0e:	2000      	movs	r0, #0
 8001e10:	14f8      	asrs	r0, r7, #19
 8001e12:	2000      	movs	r0, #0
 8001e14:	1430      	asrs	r0, r6, #16
 8001e16:	2000      	movs	r0, #0
 8001e18:	4b01      	ldr	r3, [pc, #4]	; (0x8001e20)
 8001e1a:	6818      	ldr	r0, [r3, #0]
 8001e1c:	4770      	bx	lr
 8001e1e:	bf00      	nop
 8001e20:	1424      	asrs	r4, r4, #16
 8001e22:	2000      	movs	r0, #0
 8001e24:	e92d 41f0 	stmdb	sp!, {r4, r5, r6, r7, r8, lr}
 8001e28:	4604      	mov	r4, r0
 8001e2a:	2800      	cmp	r0, #0
 8001e2c:	d042      	beq.n	0x8001eb4
 8001e2e:	4a24      	ldr	r2, [pc, #144]	; (0x8001ec0)
 8001e30:	6ac3      	ldr	r3, [r0, #44]	; 0x2c
 8001e32:	6811      	ldr	r1, [r2, #0]
 8001e34:	4617      	mov	r7, r2
 8001e36:	6ac9      	ldr	r1, [r1, #44]	; 0x2c
 8001e38:	428b      	cmp	r3, r1
 8001e3a:	d232      	bcs.n	0x8001ea2
 8001e3c:	2614      	movs	r6, #20
 8001e3e:	6982      	ldr	r2, [r0, #24]
 8001e40:	4d20      	ldr	r5, [pc, #128]	; (0x8001ec4)
 8001e42:	2a00      	cmp	r2, #0
 8001e44:	bfa8      	it	ge
 8001e46:	683a      	ldrge	r2, [r7, #0]
 8001e48:	fb06 5303 	mla	r3, r6, r3, r5
 8001e4c:	bfa2      	ittt	ge
 8001e4e:	6ad2      	ldrge	r2, [r2, #44]	; 0x2c
 8001e50:	f1c2 0205 	rsbge	r2, r2, #5
 8001e54:	6182      	strge	r2, [r0, #24]
 8001e56:	6942      	ldr	r2, [r0, #20]
 8001e58:	429a      	cmp	r2, r3
 8001e5a:	d12d      	bne.n	0x8001eb8
 8001e5c:	f100 0804 	add.w	r8, r0, #4
 8001e60:	4640      	mov	r0, r8
 8001e62:	f7fe fc23 	bl	0x80006ac
 8001e66:	4b18      	ldr	r3, [pc, #96]	; (0x8001ec8)
 8001e68:	b948      	cbnz	r0, 0x8001e7e
 8001e6a:	6ae0      	ldr	r0, [r4, #44]	; 0x2c
 8001e6c:	4346      	muls	r6, r0
 8001e6e:	59aa      	ldr	r2, [r5, r6]
 8001e70:	b92a      	cbnz	r2, 0x8001e7e
 8001e72:	2101      	movs	r1, #1
 8001e74:	681a      	ldr	r2, [r3, #0]
 8001e76:	4081      	lsls	r1, r0
 8001e78:	ea22 0201 	bic.w	r2, r2, r1
 8001e7c:	601a      	str	r2, [r3, #0]
 8001e7e:	683a      	ldr	r2, [r7, #0]
 8001e80:	6819      	ldr	r1, [r3, #0]
 8001e82:	6ad2      	ldr	r2, [r2, #44]	; 0x2c
 8001e84:	62e2      	str	r2, [r4, #44]	; 0x2c
 8001e86:	2401      	movs	r4, #1
 8001e88:	fa04 f002 	lsl.w	r0, r4, r2
 8001e8c:	4308      	orrs	r0, r1
 8001e8e:	6018      	str	r0, [r3, #0]
 8001e90:	2014      	movs	r0, #20
 8001e92:	4641      	mov	r1, r8
 8001e94:	fb00 5002 	mla	r0, r0, r2, r5
 8001e98:	f7fe fbe5 	bl	0x8000666
 8001e9c:	2001      	movs	r0, #1
 8001e9e:	e8bd 81f0 	ldmia.w	sp!, {r4, r5, r6, r7, r8, pc}
 8001ea2:	6813      	ldr	r3, [r2, #0]
 8001ea4:	6cc0      	ldr	r0, [r0, #76]	; 0x4c
 8001ea6:	6adc      	ldr	r4, [r3, #44]	; 0x2c
 8001ea8:	42a0      	cmp	r0, r4
 8001eaa:	bf2c      	ite	cs
 8001eac:	2000      	movcs	r0, #0
 8001eae:	2001      	movcc	r0, #1
 8001eb0:	e8bd 81f0 	ldmia.w	sp!, {r4, r5, r6, r7, r8, pc}
 8001eb4:	e8bd 81f0 	ldmia.w	sp!, {r4, r5, r6, r7, r8, pc}
 8001eb8:	683b      	ldr	r3, [r7, #0]
 8001eba:	6adb      	ldr	r3, [r3, #44]	; 0x2c
 8001ebc:	62c3      	str	r3, [r0, #44]	; 0x2c
 8001ebe:	e7ed      	b.n	0x8001e9c
 8001ec0:	1424      	asrs	r4, r4, #16
 8001ec2:	2000      	movs	r0, #0
 8001ec4:	1430      	asrs	r0, r6, #16
 8001ec6:	2000      	movs	r0, #0
 8001ec8:	14a8      	asrs	r0, r5, #18
 8001eca:	2000      	movs	r0, #0
 8001ecc:	b5f8      	push	{r3, r4, r5, r6, r7, lr}
 8001ece:	4604      	mov	r4, r0
 8001ed0:	b908      	cbnz	r0, 0x8001ed6
 8001ed2:	2000      	movs	r0, #0
 8001ed4:	bdf8      	pop	{r3, r4, r5, r6, r7, pc}
 8001ed6:	6d03      	ldr	r3, [r0, #80]	; 0x50
 8001ed8:	6ac1      	ldr	r1, [r0, #44]	; 0x2c
 8001eda:	6cc2      	ldr	r2, [r0, #76]	; 0x4c
 8001edc:	3b01      	subs	r3, #1
 8001ede:	4291      	cmp	r1, r2
 8001ee0:	6503      	str	r3, [r0, #80]	; 0x50
 8001ee2:	d0f6      	beq.n	0x8001ed2
 8001ee4:	2b00      	cmp	r3, #0
 8001ee6:	d1f4      	bne.n	0x8001ed2
 8001ee8:	1d05      	adds	r5, r0, #4
 8001eea:	4628      	mov	r0, r5
 8001eec:	f7fe fbde 	bl	0x80006ac
 8001ef0:	4e10      	ldr	r6, [pc, #64]	; (0x8001f34)
 8001ef2:	4a11      	ldr	r2, [pc, #68]	; (0x8001f38)
 8001ef4:	b950      	cbnz	r0, 0x8001f0c
 8001ef6:	2114      	movs	r1, #20
 8001ef8:	6ae7      	ldr	r7, [r4, #44]	; 0x2c
 8001efa:	4379      	muls	r1, r7
 8001efc:	5873      	ldr	r3, [r6, r1]
 8001efe:	b92b      	cbnz	r3, 0x8001f0c
 8001f00:	2001      	movs	r0, #1
 8001f02:	6813      	ldr	r3, [r2, #0]
 8001f04:	40b8      	lsls	r0, r7
 8001f06:	ea23 0300 	bic.w	r3, r3, r0
 8001f0a:	6013      	str	r3, [r2, #0]
 8001f0c:	6ce3      	ldr	r3, [r4, #76]	; 0x4c
 8001f0e:	f1c3 0105 	rsb	r1, r3, #5
 8001f12:	62e3      	str	r3, [r4, #44]	; 0x2c
 8001f14:	61a1      	str	r1, [r4, #24]
 8001f16:	2401      	movs	r4, #1
 8001f18:	6811      	ldr	r1, [r2, #0]
 8001f1a:	fa04 f003 	lsl.w	r0, r4, r3
 8001f1e:	4308      	orrs	r0, r1
 8001f20:	6010      	str	r0, [r2, #0]
 8001f22:	2014      	movs	r0, #20
 8001f24:	4629      	mov	r1, r5
 8001f26:	fb00 6003 	mla	r0, r0, r3, r6
 8001f2a:	f7fe fb9c 	bl	0x8000666
 8001f2e:	4620      	mov	r0, r4
 8001f30:	bdf8      	pop	{r3, r4, r5, r6, r7, pc}
 8001f32:	bf00      	nop
 8001f34:	1430      	asrs	r0, r6, #16
 8001f36:	2000      	movs	r0, #0
 8001f38:	14a8      	asrs	r0, r5, #18
 8001f3a:	2000      	movs	r0, #0
 8001f3c:	b5f8      	push	{r3, r4, r5, r6, r7, lr}
 8001f3e:	4604      	mov	r4, r0
 8001f40:	2800      	cmp	r0, #0
 8001f42:	d034      	beq.n	0x8001fae
 8001f44:	6cc3      	ldr	r3, [r0, #76]	; 0x4c
 8001f46:	4299      	cmp	r1, r3
 8001f48:	bf38      	it	cc
 8001f4a:	4619      	movcc	r1, r3
 8001f4c:	6ac3      	ldr	r3, [r0, #44]	; 0x2c
 8001f4e:	428b      	cmp	r3, r1
 8001f50:	d02d      	beq.n	0x8001fae
 8001f52:	6d02      	ldr	r2, [r0, #80]	; 0x50
 8001f54:	2a01      	cmp	r2, #1
 8001f56:	d12a      	bne.n	0x8001fae
 8001f58:	2614      	movs	r6, #20
 8001f5a:	4d15      	ldr	r5, [pc, #84]	; (0x8001fb0)
 8001f5c:	6982      	ldr	r2, [r0, #24]
 8001f5e:	fb06 5303 	mla	r3, r6, r3, r5
 8001f62:	2a00      	cmp	r2, #0
 8001f64:	6942      	ldr	r2, [r0, #20]
 8001f66:	62c1      	str	r1, [r0, #44]	; 0x2c
 8001f68:	bfa4      	itt	ge
 8001f6a:	f1c1 0105 	rsbge	r1, r1, #5
 8001f6e:	6181      	strge	r1, [r0, #24]
 8001f70:	429a      	cmp	r2, r3
 8001f72:	d11c      	bne.n	0x8001fae
 8001f74:	1d07      	adds	r7, r0, #4
 8001f76:	4638      	mov	r0, r7
 8001f78:	f7fe fb98 	bl	0x80006ac
 8001f7c:	6ae2      	ldr	r2, [r4, #44]	; 0x2c
 8001f7e:	4c0d      	ldr	r4, [pc, #52]	; (0x8001fb4)
 8001f80:	b940      	cbnz	r0, 0x8001f94
 8001f82:	4356      	muls	r6, r2
 8001f84:	59ab      	ldr	r3, [r5, r6]
 8001f86:	b92b      	cbnz	r3, 0x8001f94
 8001f88:	2101      	movs	r1, #1
 8001f8a:	6823      	ldr	r3, [r4, #0]
 8001f8c:	4091      	lsls	r1, r2
 8001f8e:	ea23 0301 	bic.w	r3, r3, r1
 8001f92:	6023      	str	r3, [r4, #0]
 8001f94:	2301      	movs	r3, #1
 8001f96:	2014      	movs	r0, #20
 8001f98:	6821      	ldr	r1, [r4, #0]
 8001f9a:	4093      	lsls	r3, r2
 8001f9c:	430b      	orrs	r3, r1
 8001f9e:	6023      	str	r3, [r4, #0]
 8001fa0:	4639      	mov	r1, r7
 8001fa2:	fb00 5002 	mla	r0, r0, r2, r5
 8001fa6:	e8bd 40f8 	ldmia.w	sp!, {r3, r4, r5, r6, r7, lr}
 8001faa:	f7fe bb5c 	b.w	0x8000666
 8001fae:	bdf8      	pop	{r3, r4, r5, r6, r7, pc}
 8001fb0:	1430      	asrs	r0, r6, #16
 8001fb2:	2000      	movs	r0, #0
 8001fb4:	14a8      	asrs	r0, r5, #18
 8001fb6:	2000      	movs	r0, #0
 8001fb8:	4b04      	ldr	r3, [pc, #16]	; (0x8001fcc)
 8001fba:	681a      	ldr	r2, [r3, #0]
 8001fbc:	6990      	ldr	r0, [r2, #24]
 8001fbe:	681a      	ldr	r2, [r3, #0]
 8001fc0:	681b      	ldr	r3, [r3, #0]
 8001fc2:	6adb      	ldr	r3, [r3, #44]	; 0x2c
 8001fc4:	f1c3 0305 	rsb	r3, r3, #5
 8001fc8:	6193      	str	r3, [r2, #24]
 8001fca:	4770      	bx	lr
 8001fcc:	1424      	asrs	r4, r4, #16
 8001fce:	2000      	movs	r0, #0
 8001fd0:	4b04      	ldr	r3, [pc, #16]	; (0x8001fe4)
 8001fd2:	681a      	ldr	r2, [r3, #0]
 8001fd4:	b11a      	cbz	r2, 0x8001fde
 8001fd6:	6819      	ldr	r1, [r3, #0]
 8001fd8:	6d0a      	ldr	r2, [r1, #80]	; 0x50
 8001fda:	3201      	adds	r2, #1
 8001fdc:	650a      	str	r2, [r1, #80]	; 0x50
 8001fde:	6818      	ldr	r0, [r3, #0]
 8001fe0:	4770      	bx	lr
 8001fe2:	bf00      	nop
 8001fe4:	1424      	asrs	r4, r4, #16
 8001fe6:	2000      	movs	r0, #0
 8001fe8:	b570      	push	{r4, r5, r6, lr}
 8001fea:	4c16      	ldr	r4, [pc, #88]	; (0x8002044)
 8001fec:	4606      	mov	r6, r0
 8001fee:	460d      	mov	r5, r1
 8001ff0:	f7fe fbba 	bl	0x8000768
 8001ff4:	6823      	ldr	r3, [r4, #0]
 8001ff6:	6d5b      	ldr	r3, [r3, #84]	; 0x54
 8001ff8:	b97b      	cbnz	r3, 0x800201a
 8001ffa:	2101      	movs	r1, #1
 8001ffc:	6823      	ldr	r3, [r4, #0]
 8001ffe:	f883 1058 	strb.w	r1, [r3, #88]	; 0x58
 8002002:	b155      	cbz	r5, 0x800201a
 8002004:	4628      	mov	r0, r5
 8002006:	f7ff f84d 	bl	0x80010a4
 800200a:	f04f 5280 	mov.w	r2, #268435456	; 0x10000000
 800200e:	4b0e      	ldr	r3, [pc, #56]	; (0x8002048)
 8002010:	601a      	str	r2, [r3, #0]
 8002012:	f3bf 8f4f 	dsb	sy
 8002016:	f3bf 8f6f 	isb	sy
 800201a:	f7fe fbb5 	bl	0x8000788
 800201e:	f7fe fba3 	bl	0x8000768
 8002022:	6823      	ldr	r3, [r4, #0]
 8002024:	6d5d      	ldr	r5, [r3, #84]	; 0x54
 8002026:	b11d      	cbz	r5, 0x8002030
 8002028:	6823      	ldr	r3, [r4, #0]
 800202a:	b14e      	cbz	r6, 0x8002040
 800202c:	2200      	movs	r2, #0
 800202e:	655a      	str	r2, [r3, #84]	; 0x54
 8002030:	2200      	movs	r2, #0
 8002032:	6823      	ldr	r3, [r4, #0]
 8002034:	f883 2058 	strb.w	r2, [r3, #88]	; 0x58
 8002038:	f7fe fba6 	bl	0x8000788
 800203c:	4628      	mov	r0, r5
 800203e:	bd70      	pop	{r4, r5, r6, pc}
 8002040:	1e6a      	subs	r2, r5, #1
 8002042:	e7f4      	b.n	0x800202e
 8002044:	1424      	asrs	r4, r4, #16
 8002046:	2000      	movs	r0, #0
 8002048:	ed04 e000 	stc	0, cr14, [r4, #-0]
 800204c:	e92d 41f0 	stmdb	sp!, {r4, r5, r6, r7, r8, lr}
 8002050:	4c1e      	ldr	r4, [pc, #120]	; (0x80020cc)
 8002052:	461e      	mov	r6, r3
 8002054:	4680      	mov	r8, r0
 8002056:	460f      	mov	r7, r1
 8002058:	4615      	mov	r5, r2
 800205a:	f7fe fb85 	bl	0x8000768
 800205e:	6823      	ldr	r3, [r4, #0]
 8002060:	f893 3058 	ldrb.w	r3, [r3, #88]	; 0x58
 8002064:	2b02      	cmp	r3, #2
 8002066:	d014      	beq.n	0x8002092
 8002068:	2101      	movs	r1, #1
 800206a:	6823      	ldr	r3, [r4, #0]
 800206c:	6d5a      	ldr	r2, [r3, #84]	; 0x54
 800206e:	ea22 0208 	bic.w	r2, r2, r8
 8002072:	655a      	str	r2, [r3, #84]	; 0x54
 8002074:	6823      	ldr	r3, [r4, #0]
 8002076:	f883 1058 	strb.w	r1, [r3, #88]	; 0x58
 800207a:	b156      	cbz	r6, 0x8002092
 800207c:	4630      	mov	r0, r6
 800207e:	f7ff f811 	bl	0x80010a4
 8002082:	f04f 5280 	mov.w	r2, #268435456	; 0x10000000
 8002086:	4b12      	ldr	r3, [pc, #72]	; (0x80020d0)
 8002088:	601a      	str	r2, [r3, #0]
 800208a:	f3bf 8f4f 	dsb	sy
 800208e:	f3bf 8f6f 	isb	sy
 8002092:	f7fe fb79 	bl	0x8000788
 8002096:	f7fe fb67 	bl	0x8000768
 800209a:	b115      	cbz	r5, 0x80020a2
 800209c:	6823      	ldr	r3, [r4, #0]
 800209e:	6d5b      	ldr	r3, [r3, #84]	; 0x54
 80020a0:	602b      	str	r3, [r5, #0]
 80020a2:	6823      	ldr	r3, [r4, #0]
 80020a4:	2200      	movs	r2, #0
 80020a6:	f893 3058 	ldrb.w	r3, [r3, #88]	; 0x58
 80020aa:	2b02      	cmp	r3, #2
 80020ac:	bf09      	itett	eq
 80020ae:	2501      	moveq	r5, #1
 80020b0:	2500      	movne	r5, #0
 80020b2:	6823      	ldreq	r3, [r4, #0]
 80020b4:	6d59      	ldreq	r1, [r3, #84]	; 0x54
 80020b6:	bf04      	itt	eq
 80020b8:	43b9      	biceq	r1, r7
 80020ba:	6559      	streq	r1, [r3, #84]	; 0x54
 80020bc:	6823      	ldr	r3, [r4, #0]
 80020be:	f883 2058 	strb.w	r2, [r3, #88]	; 0x58
 80020c2:	f7fe fb61 	bl	0x8000788
 80020c6:	4628      	mov	r0, r5
 80020c8:	e8bd 81f0 	ldmia.w	sp!, {r4, r5, r6, r7, r8, pc}
 80020cc:	1424      	asrs	r4, r4, #16
 80020ce:	2000      	movs	r0, #0
 80020d0:	ed04 e000 	stc	0, cr14, [r4, #-0]
 80020d4:	b5f8      	push	{r3, r4, r5, r6, r7, lr}
 80020d6:	461d      	mov	r5, r3
 80020d8:	4604      	mov	r4, r0
 80020da:	460f      	mov	r7, r1
 80020dc:	4616      	mov	r6, r2
 80020de:	f7fe fb43 	bl	0x8000768
 80020e2:	b10d      	cbz	r5, 0x80020e8
 80020e4:	6d63      	ldr	r3, [r4, #84]	; 0x54
 80020e6:	602b      	str	r3, [r5, #0]
 80020e8:	2302      	movs	r3, #2
 80020ea:	f894 5058 	ldrb.w	r5, [r4, #88]	; 0x58
 80020ee:	1e72      	subs	r2, r6, #1
 80020f0:	b2ed      	uxtb	r5, r5
 80020f2:	f884 3058 	strb.w	r3, [r4, #88]	; 0x58
 80020f6:	2a03      	cmp	r2, #3
 80020f8:	d80a      	bhi.n	0x8002110
 80020fa:	e8df f002 	tbb	[pc, r2]
 80020fe:	0602      	lsls	r2, r0, #24
 8002100:	1004      	asrs	r4, r0, #32
 8002102:	6d61      	ldr	r1, [r4, #84]	; 0x54
 8002104:	430f      	orrs	r7, r1
 8002106:	6567      	str	r7, [r4, #84]	; 0x54
 8002108:	e002      	b.n	0x8002110
 800210a:	6d63      	ldr	r3, [r4, #84]	; 0x54
 800210c:	3301      	adds	r3, #1
 800210e:	6563      	str	r3, [r4, #84]	; 0x54
 8002110:	2d01      	cmp	r5, #1
 8002112:	d008      	beq.n	0x8002126
 8002114:	2501      	movs	r5, #1
 8002116:	f7fe fb37 	bl	0x8000788
 800211a:	4628      	mov	r0, r5
 800211c:	bdf8      	pop	{r3, r4, r5, r6, r7, pc}
 800211e:	2d02      	cmp	r5, #2
 8002120:	d1f1      	bne.n	0x8002106
 8002122:	2500      	movs	r5, #0
 8002124:	e7f7      	b.n	0x8002116
 8002126:	1d26      	adds	r6, r4, #4
 8002128:	4630      	mov	r0, r6
 800212a:	f7fe fabf 	bl	0x80006ac
 800212e:	490e      	ldr	r1, [pc, #56]	; (0x8002168)
 8002130:	6ae2      	ldr	r2, [r4, #44]	; 0x2c
 8002132:	6808      	ldr	r0, [r1, #0]
 8002134:	fa05 f302 	lsl.w	r3, r5, r2
 8002138:	4303      	orrs	r3, r0
 800213a:	2014      	movs	r0, #20
 800213c:	600b      	str	r3, [r1, #0]
 800213e:	4b0b      	ldr	r3, [pc, #44]	; (0x800216c)
 8002140:	4631      	mov	r1, r6
 8002142:	fb00 3002 	mla	r0, r0, r2, r3
 8002146:	f7fe fa8e 	bl	0x8000666
 800214a:	4b09      	ldr	r3, [pc, #36]	; (0x8002170)
 800214c:	6ae2      	ldr	r2, [r4, #44]	; 0x2c
 800214e:	681b      	ldr	r3, [r3, #0]
 8002150:	6adb      	ldr	r3, [r3, #44]	; 0x2c
 8002152:	429a      	cmp	r2, r3
 8002154:	d9de      	bls.n	0x8002114
 8002156:	f04f 5280 	mov.w	r2, #268435456	; 0x10000000
 800215a:	4b06      	ldr	r3, [pc, #24]	; (0x8002174)
 800215c:	601a      	str	r2, [r3, #0]
 800215e:	f3bf 8f4f 	dsb	sy
 8002162:	f3bf 8f6f 	isb	sy
 8002166:	e7d6      	b.n	0x8002116
 8002168:	14a8      	asrs	r0, r5, #18
 800216a:	2000      	movs	r0, #0
 800216c:	1430      	asrs	r0, r6, #16
 800216e:	2000      	movs	r0, #0
 8002170:	1424      	asrs	r4, r4, #16
 8002172:	2000      	movs	r0, #0
 8002174:	ed04 e000 	stc	0, cr14, [r4, #-0]
 8002178:	e92d 41f0 	stmdb	sp!, {r4, r5, r6, r7, r8, lr}
 800217c:	9f06      	ldr	r7, [sp, #24]
 800217e:	4604      	mov	r4, r0
 8002180:	f3ef 8611 	mrs	r6, BASEPRI
 8002184:	f04f 00bf 	mov.w	r0, #191	; 0xbf
 8002188:	f380 8811 	msr	BASEPRI, r0
 800218c:	f3bf 8f6f 	isb	sy
 8002190:	f3bf 8f4f 	dsb	sy
 8002194:	b10b      	cbz	r3, 0x800219a
 8002196:	6d60      	ldr	r0, [r4, #84]	; 0x54
 8002198:	6018      	str	r0, [r3, #0]
 800219a:	2302      	movs	r3, #2
 800219c:	f894 5058 	ldrb.w	r5, [r4, #88]	; 0x58
 80021a0:	3a01      	subs	r2, #1
 80021a2:	b2ed      	uxtb	r5, r5
 80021a4:	f884 3058 	strb.w	r3, [r4, #88]	; 0x58
 80021a8:	2a03      	cmp	r2, #3
 80021aa:	d80a      	bhi.n	0x80021c2
 80021ac:	e8df f002 	tbb	[pc, r2]
 80021b0:	0602      	lsls	r2, r0, #24
 80021b2:	1004      	asrs	r4, r0, #32
 80021b4:	6d63      	ldr	r3, [r4, #84]	; 0x54
 80021b6:	4319      	orrs	r1, r3
 80021b8:	6561      	str	r1, [r4, #84]	; 0x54
 80021ba:	e002      	b.n	0x80021c2
 80021bc:	6d63      	ldr	r3, [r4, #84]	; 0x54
 80021be:	3301      	adds	r3, #1
 80021c0:	6563      	str	r3, [r4, #84]	; 0x54
 80021c2:	2d01      	cmp	r5, #1
 80021c4:	d008      	beq.n	0x80021d8
 80021c6:	2001      	movs	r0, #1
 80021c8:	f386 8811 	msr	BASEPRI, r6
 80021cc:	e8bd 81f0 	ldmia.w	sp!, {r4, r5, r6, r7, r8, pc}
 80021d0:	2d02      	cmp	r5, #2
 80021d2:	d1f1      	bne.n	0x80021b8
 80021d4:	2000      	movs	r0, #0
 80021d6:	e7f7      	b.n	0x80021c8
 80021d8:	4b12      	ldr	r3, [pc, #72]	; (0x8002224)
 80021da:	681b      	ldr	r3, [r3, #0]
 80021dc:	b9db      	cbnz	r3, 0x8002216
 80021de:	f104 0804 	add.w	r8, r4, #4
 80021e2:	4640      	mov	r0, r8
 80021e4:	f7fe fa62 	bl	0x80006ac
 80021e8:	4a0f      	ldr	r2, [pc, #60]	; (0x8002228)
 80021ea:	2014      	movs	r0, #20
 80021ec:	6ae3      	ldr	r3, [r4, #44]	; 0x2c
 80021ee:	6811      	ldr	r1, [r2, #0]
 80021f0:	409d      	lsls	r5, r3
 80021f2:	430d      	orrs	r5, r1
 80021f4:	4641      	mov	r1, r8
 80021f6:	6015      	str	r5, [r2, #0]
 80021f8:	4a0c      	ldr	r2, [pc, #48]	; (0x800222c)
 80021fa:	fb00 2003 	mla	r0, r0, r3, r2
 80021fe:	f7fe fa32 	bl	0x8000666
 8002202:	4b0b      	ldr	r3, [pc, #44]	; (0x8002230)
 8002204:	6ae2      	ldr	r2, [r4, #44]	; 0x2c
 8002206:	681b      	ldr	r3, [r3, #0]
 8002208:	6adb      	ldr	r3, [r3, #44]	; 0x2c
 800220a:	429a      	cmp	r2, r3
 800220c:	d9db      	bls.n	0x80021c6
 800220e:	2001      	movs	r0, #1
 8002210:	b12f      	cbz	r7, 0x800221e
 8002212:	6038      	str	r0, [r7, #0]
 8002214:	e7d8      	b.n	0x80021c8
 8002216:	f104 0118 	add.w	r1, r4, #24
 800221a:	4806      	ldr	r0, [pc, #24]	; (0x8002234)
 800221c:	e7ef      	b.n	0x80021fe
 800221e:	4b06      	ldr	r3, [pc, #24]	; (0x8002238)
 8002220:	6018      	str	r0, [r3, #0]
 8002222:	e7d1      	b.n	0x80021c8
 8002224:	14a0      	asrs	r0, r4, #18
 8002226:	2000      	movs	r0, #0
 8002228:	14a8      	asrs	r0, r5, #18
 800222a:	2000      	movs	r0, #0
 800222c:	1430      	asrs	r0, r6, #16
 800222e:	2000      	movs	r0, #0
 8002230:	1424      	asrs	r4, r4, #16
 8002232:	2000      	movs	r0, #0
 8002234:	14e0      	asrs	r0, r4, #19
 8002236:	2000      	movs	r0, #0
 8002238:	1524      	asrs	r4, r4, #20
 800223a:	2000      	movs	r0, #0
 800223c:	e92d 41f0 	stmdb	sp!, {r4, r5, r6, r7, r8, lr}
 8002240:	4604      	mov	r4, r0
 8002242:	460e      	mov	r6, r1
 8002244:	f3ef 8711 	mrs	r7, BASEPRI
 8002248:	f04f 03bf 	mov.w	r3, #191	; 0xbf
 800224c:	f383 8811 	msr	BASEPRI, r3
 8002250:	f3bf 8f6f 	isb	sy
 8002254:	f3bf 8f4f 	dsb	sy
 8002258:	2302      	movs	r3, #2
 800225a:	f890 5058 	ldrb.w	r5, [r0, #88]	; 0x58
 800225e:	f880 3058 	strb.w	r3, [r0, #88]	; 0x58
 8002262:	6d43      	ldr	r3, [r0, #84]	; 0x54
 8002264:	b2ed      	uxtb	r5, r5
 8002266:	3301      	adds	r3, #1
 8002268:	2d01      	cmp	r5, #1
 800226a:	6543      	str	r3, [r0, #84]	; 0x54
 800226c:	d11d      	bne.n	0x80022aa
 800226e:	4b14      	ldr	r3, [pc, #80]	; (0x80022c0)
 8002270:	681b      	ldr	r3, [r3, #0]
 8002272:	b9f3      	cbnz	r3, 0x80022b2
 8002274:	f100 0804 	add.w	r8, r0, #4
 8002278:	4640      	mov	r0, r8
 800227a:	f7fe fa17 	bl	0x80006ac
 800227e:	4a11      	ldr	r2, [pc, #68]	; (0x80022c4)
 8002280:	2014      	movs	r0, #20
 8002282:	6ae3      	ldr	r3, [r4, #44]	; 0x2c
 8002284:	6811      	ldr	r1, [r2, #0]
 8002286:	409d      	lsls	r5, r3
 8002288:	430d      	orrs	r5, r1
 800228a:	4641      	mov	r1, r8
 800228c:	6015      	str	r5, [r2, #0]
 800228e:	4a0e      	ldr	r2, [pc, #56]	; (0x80022c8)
 8002290:	fb00 2003 	mla	r0, r0, r3, r2
 8002294:	f7fe f9e7 	bl	0x8000666
 8002298:	4b0c      	ldr	r3, [pc, #48]	; (0x80022cc)
 800229a:	6ae2      	ldr	r2, [r4, #44]	; 0x2c
 800229c:	681b      	ldr	r3, [r3, #0]
 800229e:	6adb      	ldr	r3, [r3, #44]	; 0x2c
 80022a0:	429a      	cmp	r2, r3
 80022a2:	d902      	bls.n	0x80022aa
 80022a4:	2301      	movs	r3, #1
 80022a6:	b146      	cbz	r6, 0x80022ba
 80022a8:	6033      	str	r3, [r6, #0]
 80022aa:	f387 8811 	msr	BASEPRI, r7
 80022ae:	e8bd 81f0 	ldmia.w	sp!, {r4, r5, r6, r7, r8, pc}
 80022b2:	f100 0118 	add.w	r1, r0, #24
 80022b6:	4806      	ldr	r0, [pc, #24]	; (0x80022d0)
 80022b8:	e7ec      	b.n	0x8002294
 80022ba:	4a06      	ldr	r2, [pc, #24]	; (0x80022d4)
 80022bc:	6013      	str	r3, [r2, #0]
 80022be:	e7f4      	b.n	0x80022aa
 80022c0:	14a0      	asrs	r0, r4, #18
 80022c2:	2000      	movs	r0, #0
 80022c4:	14a8      	asrs	r0, r5, #18
 80022c6:	2000      	movs	r0, #0
 80022c8:	1430      	asrs	r0, r6, #16
 80022ca:	2000      	movs	r0, #0
 80022cc:	1424      	asrs	r4, r4, #16
 80022ce:	2000      	movs	r0, #0
 80022d0:	14e0      	asrs	r0, r4, #19
 80022d2:	2000      	movs	r0, #0
 80022d4:	1524      	asrs	r4, r4, #20
 80022d6:	2000      	movs	r0, #0
 80022d8:	b510      	push	{r4, lr}
 80022da:	b980      	cbnz	r0, 0x80022fe
 80022dc:	4b09      	ldr	r3, [pc, #36]	; (0x8002304)
 80022de:	681c      	ldr	r4, [r3, #0]
 80022e0:	f7fe fa42 	bl	0x8000768
 80022e4:	2000      	movs	r0, #0
 80022e6:	f894 3058 	ldrb.w	r3, [r4, #88]	; 0x58
 80022ea:	2b02      	cmp	r3, #2
 80022ec:	bf0a      	itet	eq
 80022ee:	f884 0058 	strbeq.w	r0, [r4, #88]	; 0x58
 80022f2:	4604      	movne	r4, r0
 80022f4:	2401      	moveq	r4, #1
 80022f6:	f7fe fa47 	bl	0x8000788
 80022fa:	4620      	mov	r0, r4
 80022fc:	bd10      	pop	{r4, pc}
 80022fe:	4604      	mov	r4, r0
 8002300:	e7ee      	b.n	0x80022e0
 8002302:	bf00      	nop
 8002304:	1424      	asrs	r4, r4, #16
 8002306:	2000      	movs	r0, #0
 8002308:	4770      	bx	lr
 800230a:	4770      	bx	lr
 800230c:	b510      	push	{r4, lr}
 800230e:	f04f 32ff 	mov.w	r2, #4294967295	; 0xffffffff
 8002312:	2400      	movs	r4, #0
 8002314:	4b04      	ldr	r3, [pc, #16]	; (0x8002328)
 8002316:	60da      	str	r2, [r3, #12]
 8002318:	611c      	str	r4, [r3, #16]
 800231a:	60da      	str	r2, [r3, #12]
 800231c:	60dc      	str	r4, [r3, #12]
 800231e:	f001 fa08 	bl	0x8003732
 8002322:	4620      	mov	r0, r4
 8002324:	bd10      	pop	{r4, pc}
 8002326:	bf00      	nop
 8002328:	1000      	asrs	r0, r0, #32
 800232a:	4002      	ands	r2, r0
 800232c:	b510      	push	{r4, lr}
 800232e:	4604      	mov	r4, r0
 8002330:	f002 fb3e 	bl	0x80049b0
 8002334:	f44f 737a 	mov.w	r3, #1000	; 0x3e8
 8002338:	fbb0 f0f3 	udiv	r0, r0, r3
 800233c:	f000 f902 	bl	0x8002544
 8002340:	2200      	movs	r2, #0
 8002342:	4621      	mov	r1, r4
 8002344:	f04f 30ff 	mov.w	r0, #4294967295	; 0xffffffff
 8002348:	f000 f89c 	bl	0x8002484
 800234c:	2000      	movs	r0, #0
 800234e:	bd10      	pop	{r4, pc}
 8002350:	4a07      	ldr	r2, [pc, #28]	; (0x8002370)
 8002352:	b508      	push	{r3, lr}
 8002354:	6813      	ldr	r3, [r2, #0]
 8002356:	2003      	movs	r0, #3
 8002358:	f043 0310 	orr.w	r3, r3, #16
 800235c:	6013      	str	r3, [r2, #0]
 800235e:	f000 f87f 	bl	0x8002460
 8002362:	2000      	movs	r0, #0
 8002364:	f7ff ffe2 	bl	0x800232c
 8002368:	f001 f9e2 	bl	0x8003730
 800236c:	2000      	movs	r0, #0
 800236e:	bd08      	pop	{r3, pc}
 8002370:	2000      	movs	r0, #0
 8002372:	4002      	ands	r2, r0
 8002374:	4a02      	ldr	r2, [pc, #8]	; (0x8002380)
 8002376:	6813      	ldr	r3, [r2, #0]
 8002378:	3301      	adds	r3, #1
 800237a:	6013      	str	r3, [r2, #0]
 800237c:	4770      	bx	lr
 800237e:	bf00      	nop
 8002380:	1528      	asrs	r0, r5, #20
 8002382:	2000      	movs	r0, #0
 8002384:	4b01      	ldr	r3, [pc, #4]	; (0x800238c)
 8002386:	6818      	ldr	r0, [r3, #0]
 8002388:	4770      	bx	lr
 800238a:	bf00      	nop
 800238c:	1528      	asrs	r0, r5, #20
 800238e:	2000      	movs	r0, #0
 8002390:	b513      	push	{r0, r1, r4, lr}
 8002392:	9001      	str	r0, [sp, #4]
 8002394:	f7ff fff6 	bl	0x8002384
 8002398:	4604      	mov	r4, r0
 800239a:	f7ff fff3 	bl	0x8002384
 800239e:	9b01      	ldr	r3, [sp, #4]
 80023a0:	1b00      	subs	r0, r0, r4
 80023a2:	4298      	cmp	r0, r3
 80023a4:	d3f9      	bcc.n	0x800239a
 80023a6:	b002      	add	sp, #8
 80023a8:	bd10      	pop	{r4, pc}
 80023aa:	0000      	movs	r0, r0
 80023ac:	4a02      	ldr	r2, [pc, #8]	; (0x80023b8)
 80023ae:	6813      	ldr	r3, [r2, #0]
 80023b0:	f023 0302 	bic.w	r3, r3, #2
 80023b4:	6013      	str	r3, [r2, #0]
 80023b6:	4770      	bx	lr
 80023b8:	e010      	b.n	0x80023dc
 80023ba:	e000      	b.n	0x80023be
 80023bc:	4a02      	ldr	r2, [pc, #8]	; (0x80023c8)
 80023be:	6813      	ldr	r3, [r2, #0]
 80023c0:	f043 0302 	orr.w	r3, r3, #2
 80023c4:	6013      	str	r3, [r2, #0]
 80023c6:	4770      	bx	lr
 80023c8:	e010      	b.n	0x80023ec
 80023ca:	e000      	b.n	0x80023ce
 80023cc:	4800      	ldr	r0, [pc, #0]	; (0x80023d0)
 80023ce:	4770      	bx	lr
 80023d0:	0400      	lsls	r0, r0, #16
 80023d2:	0100      	lsls	r0, r0, #4
 80023d4:	4b04      	ldr	r3, [pc, #16]	; (0x80023e8)
 80023d6:	6818      	ldr	r0, [r3, #0]
 80023d8:	4b04      	ldr	r3, [pc, #16]	; (0x80023ec)
 80023da:	fa93 f3a3 	rbit	r3, r3
 80023de:	fab3 f383 	clz	r3, r3
 80023e2:	40d8      	lsrs	r0, r3
 80023e4:	4770      	bx	lr
 80023e6:	bf00      	nop
 80023e8:	2000      	movs	r0, #0
 80023ea:	e004      	b.n	0x80023f6
 80023ec:	0000      	movs	r0, r0
 80023ee:	ffff 4b02 	vtbl.8	d20, {d15-d18}, d2
 80023f2:	6818      	ldr	r0, [r3, #0]
 80023f4:	f3c0 000b 	ubfx	r0, r0, #0, #12
 80023f8:	4770      	bx	lr
 80023fa:	bf00      	nop
 80023fc:	2000      	movs	r0, #0
 80023fe:	e004      	b.n	0x800240a
 8002400:	4a02      	ldr	r2, [pc, #8]	; (0x800240c)
 8002402:	6853      	ldr	r3, [r2, #4]
 8002404:	f043 0301 	orr.w	r3, r3, #1
 8002408:	6053      	str	r3, [r2, #4]
 800240a:	4770      	bx	lr
 800240c:	2000      	movs	r0, #0
 800240e:	e004      	b.n	0x800241a
 8002410:	4a02      	ldr	r2, [pc, #8]	; (0x800241c)
 8002412:	6853      	ldr	r3, [r2, #4]
 8002414:	f023 0301 	bic.w	r3, r3, #1
 8002418:	6053      	str	r3, [r2, #4]
 800241a:	4770      	bx	lr
 800241c:	2000      	movs	r0, #0
 800241e:	e004      	b.n	0x800242a
 8002420:	4a02      	ldr	r2, [pc, #8]	; (0x800242c)
 8002422:	6853      	ldr	r3, [r2, #4]
 8002424:	f043 0302 	orr.w	r3, r3, #2
 8002428:	6053      	str	r3, [r2, #4]
 800242a:	4770      	bx	lr
 800242c:	2000      	movs	r0, #0
 800242e:	e004      	b.n	0x800243a
 8002430:	4a02      	ldr	r2, [pc, #8]	; (0x800243c)
 8002432:	6853      	ldr	r3, [r2, #4]
 8002434:	f023 0302 	bic.w	r3, r3, #2
 8002438:	6053      	str	r3, [r2, #4]
 800243a:	4770      	bx	lr
 800243c:	2000      	movs	r0, #0
 800243e:	e004      	b.n	0x800244a
 8002440:	4a02      	ldr	r2, [pc, #8]	; (0x800244c)
 8002442:	6853      	ldr	r3, [r2, #4]
 8002444:	f043 0304 	orr.w	r3, r3, #4
 8002448:	6053      	str	r3, [r2, #4]
 800244a:	4770      	bx	lr
 800244c:	2000      	movs	r0, #0
 800244e:	e004      	b.n	0x800245a
 8002450:	4a02      	ldr	r2, [pc, #8]	; (0x800245c)
 8002452:	6853      	ldr	r3, [r2, #4]
 8002454:	f023 0304 	bic.w	r3, r3, #4
 8002458:	6053      	str	r3, [r2, #4]
 800245a:	4770      	bx	lr
 800245c:	2000      	movs	r0, #0
 800245e:	e004      	b.n	0x800246a
 8002460:	4a07      	ldr	r2, [pc, #28]	; (0x8002480)
 8002462:	0200      	lsls	r0, r0, #8
 8002464:	68d3      	ldr	r3, [r2, #12]
 8002466:	f400 60e0 	and.w	r0, r0, #1792	; 0x700
 800246a:	f423 63e0 	bic.w	r3, r3, #1792	; 0x700
 800246e:	041b      	lsls	r3, r3, #16
 8002470:	0c1b      	lsrs	r3, r3, #16
 8002472:	f043 63bf 	orr.w	r3, r3, #100139008	; 0x5f80000
 8002476:	f443 3300 	orr.w	r3, r3, #131072	; 0x20000
 800247a:	4303      	orrs	r3, r0
 800247c:	60d3      	str	r3, [r2, #12]
 800247e:	4770      	bx	lr
 8002480:	ed00 e000 	stc	0, cr14, [r0, #-0]
 8002484:	4b17      	ldr	r3, [pc, #92]	; (0x80024e4)
 8002486:	b530      	push	{r4, r5, lr}
 8002488:	68dc      	ldr	r4, [r3, #12]
 800248a:	f3c4 2402 	ubfx	r4, r4, #8, #3
 800248e:	f1c4 0307 	rsb	r3, r4, #7
 8002492:	1d25      	adds	r5, r4, #4
 8002494:	2b04      	cmp	r3, #4
 8002496:	bf28      	it	cs
 8002498:	2304      	movcs	r3, #4
 800249a:	2d06      	cmp	r5, #6
 800249c:	f04f 0501 	mov.w	r5, #1
 80024a0:	bf98      	it	ls
 80024a2:	2400      	movls	r4, #0
 80024a4:	fa05 f303 	lsl.w	r3, r5, r3
 80024a8:	f103 33ff 	add.w	r3, r3, #4294967295	; 0xffffffff
 80024ac:	bf88      	it	hi
 80024ae:	3c03      	subhi	r4, #3
 80024b0:	4019      	ands	r1, r3
 80024b2:	40a1      	lsls	r1, r4
 80024b4:	fa05 f404 	lsl.w	r4, r5, r4
 80024b8:	3c01      	subs	r4, #1
 80024ba:	4022      	ands	r2, r4
 80024bc:	2800      	cmp	r0, #0
 80024be:	ea42 0201 	orr.w	r2, r2, r1
 80024c2:	ea4f 1202 	mov.w	r2, r2, lsl #4
 80024c6:	bfaf      	iteee	ge
 80024c8:	f100 4060 	addge.w	r0, r0, #3758096384	; 0xe0000000
 80024cc:	4b06      	ldrlt	r3, [pc, #24]	; (0x80024e8)
 80024ce:	f000 000f 	andlt.w	r0, r0, #15
 80024d2:	b2d2      	uxtblt	r2, r2
 80024d4:	bfa5      	ittet	ge
 80024d6:	b2d2      	uxtbge	r2, r2
 80024d8:	f500 4061 	addge.w	r0, r0, #57600	; 0xe100
 80024dc:	541a      	strblt	r2, [r3, r0]
 80024de:	f880 2300 	strbge.w	r2, [r0, #768]	; 0x300
 80024e2:	bd30      	pop	{r4, r5, pc}
 80024e4:	ed00 e000 	stc	0, cr14, [r0, #-0]
 80024e8:	ed14 e000 	ldc	0, cr14, [r4, #-0]
 80024ec:	2301      	movs	r3, #1
 80024ee:	0942      	lsrs	r2, r0, #5
 80024f0:	f000 001f 	and.w	r0, r0, #31
 80024f4:	fa03 f000 	lsl.w	r0, r3, r0
 80024f8:	4b01      	ldr	r3, [pc, #4]	; (0x8002500)
 80024fa:	f843 0022 	str.w	r0, [r3, r2, lsl #2]
 80024fe:	4770      	bx	lr
 8002500:	e100      	b.n	0x8002704
 8002502:	e000      	b.n	0x8002506
 8002504:	2201      	movs	r2, #1
 8002506:	0943      	lsrs	r3, r0, #5
 8002508:	f000 001f 	and.w	r0, r0, #31
 800250c:	fa02 f000 	lsl.w	r0, r2, r0
 8002510:	4a02      	ldr	r2, [pc, #8]	; (0x800251c)
 8002512:	3320      	adds	r3, #32
 8002514:	f842 0023 	str.w	r0, [r2, r3, lsl #2]
 8002518:	4770      	bx	lr
 800251a:	bf00      	nop
 800251c:	e100      	b.n	0x8002720
 800251e:	e000      	b.n	0x8002522
 8002520:	f3bf 8f4f 	dsb	sy
 8002524:	4905      	ldr	r1, [pc, #20]	; (0x800253c)
 8002526:	4b06      	ldr	r3, [pc, #24]	; (0x8002540)
 8002528:	68ca      	ldr	r2, [r1, #12]
 800252a:	f402 62e0 	and.w	r2, r2, #1792	; 0x700
 800252e:	4313      	orrs	r3, r2
 8002530:	60cb      	str	r3, [r1, #12]
 8002532:	f3bf 8f4f 	dsb	sy
 8002536:	bf00      	nop
 8002538:	e7fd      	b.n	0x8002536
 800253a:	bf00      	nop
 800253c:	ed00 e000 	stc	0, cr14, [r0, #-0]
 8002540:	0004      	movs	r4, r0
 8002542:	05fa      	lsls	r2, r7, #23
 8002544:	3801      	subs	r0, #1
 8002546:	f1b0 7f80 	cmp.w	r0, #16777216	; 0x1000000
 800254a:	d20a      	bcs.n	0x8002562
 800254c:	21f0      	movs	r1, #240	; 0xf0
 800254e:	4b06      	ldr	r3, [pc, #24]	; (0x8002568)
 8002550:	4a06      	ldr	r2, [pc, #24]	; (0x800256c)
 8002552:	6058      	str	r0, [r3, #4]
 8002554:	f882 1023 	strb.w	r1, [r2, #35]	; 0x23
 8002558:	2000      	movs	r0, #0
 800255a:	2207      	movs	r2, #7
 800255c:	6098      	str	r0, [r3, #8]
 800255e:	601a      	str	r2, [r3, #0]
 8002560:	4770      	bx	lr
 8002562:	2001      	movs	r0, #1
 8002564:	4770      	bx	lr
 8002566:	bf00      	nop
 8002568:	e010      	b.n	0x800258c
 800256a:	e000      	b.n	0x800256e
 800256c:	ed00 e000 	stc	0, cr14, [r0, #-0]
 8002570:	4b02      	ldr	r3, [pc, #8]	; (0x800257c)
 8002572:	68d8      	ldr	r0, [r3, #12]
 8002574:	f3c0 2002 	ubfx	r0, r0, #8, #3
 8002578:	4770      	bx	lr
 800257a:	bf00      	nop
 800257c:	ed00 e000 	stc	0, cr14, [r0, #-0]
 8002580:	b570      	push	{r4, r5, r6, lr}
 8002582:	2800      	cmp	r0, #0
 8002584:	bfac      	ite	ge
 8002586:	f100 4060 	addge.w	r0, r0, #3758096384	; 0xe0000000
 800258a:	4c13      	ldrlt	r4, [pc, #76]	; (0x80025d8)
 800258c:	f001 0107 	and.w	r1, r1, #7
 8002590:	bfb5      	itete	lt
 8002592:	f000 000f 	andlt.w	r0, r0, #15
 8002596:	f500 4061 	addge.w	r0, r0, #57600	; 0xe100
 800259a:	5c25      	ldrblt	r5, [r4, r0]
 800259c:	f890 5300 	ldrbge.w	r5, [r0, #768]	; 0x300
 80025a0:	f1c1 0007 	rsb	r0, r1, #7
 80025a4:	1d0c      	adds	r4, r1, #4
 80025a6:	2804      	cmp	r0, #4
 80025a8:	bf28      	it	cs
 80025aa:	2004      	movcs	r0, #4
 80025ac:	2c06      	cmp	r4, #6
 80025ae:	bf98      	it	ls
 80025b0:	2100      	movls	r1, #0
 80025b2:	f04f 0401 	mov.w	r4, #1
 80025b6:	ea4f 1515 	mov.w	r5, r5, lsr #4
 80025ba:	bf88      	it	hi
 80025bc:	3903      	subhi	r1, #3
 80025be:	fa25 f601 	lsr.w	r6, r5, r1
 80025c2:	fa04 f000 	lsl.w	r0, r4, r0
 80025c6:	fa04 f101 	lsl.w	r1, r4, r1
 80025ca:	3801      	subs	r0, #1
 80025cc:	3901      	subs	r1, #1
 80025ce:	4030      	ands	r0, r6
 80025d0:	4029      	ands	r1, r5
 80025d2:	6010      	str	r0, [r2, #0]
 80025d4:	6019      	str	r1, [r3, #0]
 80025d6:	bd70      	pop	{r4, r5, r6, pc}
 80025d8:	ed14 e000 	ldc	0, cr14, [r4, #-0]
 80025dc:	2201      	movs	r2, #1
 80025de:	0943      	lsrs	r3, r0, #5
 80025e0:	f000 001f 	and.w	r0, r0, #31
 80025e4:	fa02 f000 	lsl.w	r0, r2, r0
 80025e8:	4a02      	ldr	r2, [pc, #8]	; (0x80025f4)
 80025ea:	3340      	adds	r3, #64	; 0x40
 80025ec:	f842 0023 	str.w	r0, [r2, r3, lsl #2]
 80025f0:	4770      	bx	lr
 80025f2:	bf00      	nop
 80025f4:	e100      	b.n	0x80027f8
 80025f6:	e000      	b.n	0x80025fa
 80025f8:	0943      	lsrs	r3, r0, #5
 80025fa:	4a05      	ldr	r2, [pc, #20]	; (0x8002610)
 80025fc:	3340      	adds	r3, #64	; 0x40
 80025fe:	f852 3023 	ldr.w	r3, [r2, r3, lsl #2]
 8002602:	f000 001f 	and.w	r0, r0, #31
 8002606:	fa23 f000 	lsr.w	r0, r3, r0
 800260a:	f000 0001 	and.w	r0, r0, #1
 800260e:	4770      	bx	lr
 8002610:	e100      	b.n	0x8002814
 8002612:	e000      	b.n	0x8002616
 8002614:	2201      	movs	r2, #1
 8002616:	0943      	lsrs	r3, r0, #5
 8002618:	f000 001f 	and.w	r0, r0, #31
 800261c:	fa02 f000 	lsl.w	r0, r2, r0
 8002620:	4a02      	ldr	r2, [pc, #8]	; (0x800262c)
 8002622:	3360      	adds	r3, #96	; 0x60
 8002624:	f842 0023 	str.w	r0, [r2, r3, lsl #2]
 8002628:	4770      	bx	lr
 800262a:	bf00      	nop
 800262c:	e100      	b.n	0x8002830
 800262e:	e000      	b.n	0x8002632
 8002630:	0943      	lsrs	r3, r0, #5
 8002632:	4a05      	ldr	r2, [pc, #20]	; (0x8002648)
 8002634:	3380      	adds	r3, #128	; 0x80
 8002636:	f852 3023 	ldr.w	r3, [r2, r3, lsl #2]
 800263a:	f000 001f 	and.w	r0, r0, #31
 800263e:	fa23 f000 	lsr.w	r0, r3, r0
 8002642:	f000 0001 	and.w	r0, r0, #1
 8002646:	4770      	bx	lr
 8002648:	e100      	b.n	0x800284c
 800264a:	e000      	b.n	0x800264e
 800264c:	4b04      	ldr	r3, [pc, #16]	; (0x8002660)
 800264e:	2804      	cmp	r0, #4
 8002650:	681a      	ldr	r2, [r3, #0]
 8002652:	bf0c      	ite	eq
 8002654:	f042 0204 	orreq.w	r2, r2, #4
 8002658:	f022 0204 	bicne.w	r2, r2, #4
 800265c:	601a      	str	r2, [r3, #0]
 800265e:	4770      	bx	lr
 8002660:	e010      	b.n	0x8002684
 8002662:	e000      	b.n	0x8002666
 8002664:	4770      	bx	lr
 8002666:	b508      	push	{r3, lr}
 8002668:	f7ff fffc 	bl	0x8002664
 800266c:	bd08      	pop	{r3, pc}
 800266e:	b510      	push	{r4, lr}
 8002670:	b300      	cbz	r0, 0x80026b4
 8002672:	f890 3021 	ldrb.w	r3, [r0, #33]	; 0x21
 8002676:	b90b      	cbnz	r3, 0x800267c
 8002678:	f880 3020 	strb.w	r3, [r0, #32]
 800267c:	6884      	ldr	r4, [r0, #8]
 800267e:	6843      	ldr	r3, [r0, #4]
 8002680:	6801      	ldr	r1, [r0, #0]
 8002682:	4323      	orrs	r3, r4
 8002684:	68c4      	ldr	r4, [r0, #12]
 8002686:	680a      	ldr	r2, [r1, #0]
 8002688:	4323      	orrs	r3, r4
 800268a:	6904      	ldr	r4, [r0, #16]
 800268c:	f422 527f 	bic.w	r2, r2, #16320	; 0x3fc0
 8002690:	4323      	orrs	r3, r4
 8002692:	6944      	ldr	r4, [r0, #20]
 8002694:	f022 0230 	bic.w	r2, r2, #48	; 0x30
 8002698:	4323      	orrs	r3, r4
 800269a:	6984      	ldr	r4, [r0, #24]
 800269c:	4323      	orrs	r3, r4
 800269e:	69c4      	ldr	r4, [r0, #28]
 80026a0:	4323      	orrs	r3, r4
 80026a2:	4313      	orrs	r3, r2
 80026a4:	600b      	str	r3, [r1, #0]
 80026a6:	2201      	movs	r2, #1
 80026a8:	2300      	movs	r3, #0
 80026aa:	f880 2021 	strb.w	r2, [r0, #33]	; 0x21
 80026ae:	6343      	str	r3, [r0, #52]	; 0x34
 80026b0:	4618      	mov	r0, r3
 80026b2:	bd10      	pop	{r4, pc}
 80026b4:	2001      	movs	r0, #1
 80026b6:	bd10      	pop	{r4, pc}
 80026b8:	b510      	push	{r4, lr}
 80026ba:	2800      	cmp	r0, #0
 80026bc:	f000 8084 	beq.w	0x80027c8
 80026c0:	f890 3021 	ldrb.w	r3, [r0, #33]	; 0x21
 80026c4:	2b02      	cmp	r3, #2
 80026c6:	d07f      	beq.n	0x80027c8
 80026c8:	6803      	ldr	r3, [r0, #0]
 80026ca:	4940      	ldr	r1, [pc, #256]	; (0x80027cc)
 80026cc:	681a      	ldr	r2, [r3, #0]
 80026ce:	428b      	cmp	r3, r1
 80026d0:	f022 0201 	bic.w	r2, r2, #1
 80026d4:	601a      	str	r2, [r3, #0]
 80026d6:	f04f 0200 	mov.w	r2, #0
 80026da:	601a      	str	r2, [r3, #0]
 80026dc:	605a      	str	r2, [r3, #4]
 80026de:	609a      	str	r2, [r3, #8]
 80026e0:	60da      	str	r2, [r3, #12]
 80026e2:	d04a      	beq.n	0x800277a
 80026e4:	4a3a      	ldr	r2, [pc, #232]	; (0x80027d0)
 80026e6:	4293      	cmp	r3, r2
 80026e8:	d049      	beq.n	0x800277e
 80026ea:	3214      	adds	r2, #20
 80026ec:	4293      	cmp	r3, r2
 80026ee:	d048      	beq.n	0x8002782
 80026f0:	3214      	adds	r2, #20
 80026f2:	4293      	cmp	r3, r2
 80026f4:	d048      	beq.n	0x8002788
 80026f6:	3214      	adds	r2, #20
 80026f8:	4293      	cmp	r3, r2
 80026fa:	d048      	beq.n	0x800278e
 80026fc:	3214      	adds	r2, #20
 80026fe:	4293      	cmp	r3, r2
 8002700:	bf0c      	ite	eq
 8002702:	f44f 1200 	moveq.w	r2, #2097152	; 0x200000
 8002706:	f04f 7200 	movne.w	r2, #33554432	; 0x2000000
 800270a:	4c32      	ldr	r4, [pc, #200]	; (0x80027d4)
 800270c:	428b      	cmp	r3, r1
 800270e:	6062      	str	r2, [r4, #4]
 8002710:	d040      	beq.n	0x8002794
 8002712:	4a2f      	ldr	r2, [pc, #188]	; (0x80027d0)
 8002714:	4293      	cmp	r3, r2
 8002716:	d03f      	beq.n	0x8002798
 8002718:	3214      	adds	r2, #20
 800271a:	4293      	cmp	r3, r2
 800271c:	d03e      	beq.n	0x800279c
 800271e:	3214      	adds	r2, #20
 8002720:	4293      	cmp	r3, r2
 8002722:	d03e      	beq.n	0x80027a2
 8002724:	3214      	adds	r2, #20
 8002726:	4293      	cmp	r3, r2
 8002728:	d03e      	beq.n	0x80027a8
 800272a:	3214      	adds	r2, #20
 800272c:	4293      	cmp	r3, r2
 800272e:	bf0c      	ite	eq
 8002730:	f44f 0200 	moveq.w	r2, #8388608	; 0x800000
 8002734:	f04f 6200 	movne.w	r2, #134217728	; 0x8000000
 8002738:	4c26      	ldr	r4, [pc, #152]	; (0x80027d4)
 800273a:	428b      	cmp	r3, r1
 800273c:	6062      	str	r2, [r4, #4]
 800273e:	d036      	beq.n	0x80027ae
 8002740:	4a23      	ldr	r2, [pc, #140]	; (0x80027d0)
 8002742:	4293      	cmp	r3, r2
 8002744:	d035      	beq.n	0x80027b2
 8002746:	3214      	adds	r2, #20
 8002748:	4293      	cmp	r3, r2
 800274a:	d034      	beq.n	0x80027b6
 800274c:	3214      	adds	r2, #20
 800274e:	4293      	cmp	r3, r2
 8002750:	d034      	beq.n	0x80027bc
 8002752:	3214      	adds	r2, #20
 8002754:	4293      	cmp	r3, r2
 8002756:	d034      	beq.n	0x80027c2
 8002758:	3214      	adds	r2, #20
 800275a:	4293      	cmp	r3, r2
 800275c:	bf0c      	ite	eq
 800275e:	f44f 0380 	moveq.w	r3, #4194304	; 0x400000
 8002762:	f04f 6380 	movne.w	r3, #67108864	; 0x4000000
 8002766:	4a1b      	ldr	r2, [pc, #108]	; (0x80027d4)
 8002768:	6053      	str	r3, [r2, #4]
 800276a:	2300      	movs	r3, #0
 800276c:	6343      	str	r3, [r0, #52]	; 0x34
 800276e:	f880 3021 	strb.w	r3, [r0, #33]	; 0x21
 8002772:	f880 3020 	strb.w	r3, [r0, #32]
 8002776:	4618      	mov	r0, r3
 8002778:	bd10      	pop	{r4, pc}
 800277a:	2202      	movs	r2, #2
 800277c:	e7c5      	b.n	0x800270a
 800277e:	2220      	movs	r2, #32
 8002780:	e7c3      	b.n	0x800270a
 8002782:	f44f 7200 	mov.w	r2, #512	; 0x200
 8002786:	e7c0      	b.n	0x800270a
 8002788:	f44f 5200 	mov.w	r2, #8192	; 0x2000
 800278c:	e7bd      	b.n	0x800270a
 800278e:	f44f 3200 	mov.w	r2, #131072	; 0x20000
 8002792:	e7ba      	b.n	0x800270a
 8002794:	2208      	movs	r2, #8
 8002796:	e7cf      	b.n	0x8002738
 8002798:	2280      	movs	r2, #128	; 0x80
 800279a:	e7cd      	b.n	0x8002738
 800279c:	f44f 6200 	mov.w	r2, #2048	; 0x800
 80027a0:	e7ca      	b.n	0x8002738
 80027a2:	f44f 4200 	mov.w	r2, #32768	; 0x8000
 80027a6:	e7c7      	b.n	0x8002738
 80027a8:	f44f 2200 	mov.w	r2, #524288	; 0x80000
 80027ac:	e7c4      	b.n	0x8002738
 80027ae:	2304      	movs	r3, #4
 80027b0:	e7d9      	b.n	0x8002766
 80027b2:	2340      	movs	r3, #64	; 0x40
 80027b4:	e7d7      	b.n	0x8002766
 80027b6:	f44f 6380 	mov.w	r3, #1024	; 0x400
 80027ba:	e7d4      	b.n	0x8002766
 80027bc:	f44f 4380 	mov.w	r3, #16384	; 0x4000
 80027c0:	e7d1      	b.n	0x8002766
 80027c2:	f44f 2380 	mov.w	r3, #262144	; 0x40000
 80027c6:	e7ce      	b.n	0x8002766
 80027c8:	2001      	movs	r0, #1
 80027ca:	bd10      	pop	{r4, pc}
 80027cc:	0008      	movs	r0, r1
 80027ce:	4002      	ands	r2, r0
 80027d0:	001c      	movs	r4, r3
 80027d2:	4002      	ands	r2, r0
 80027d4:	0000      	movs	r0, r0
 80027d6:	4002      	ands	r2, r0
 80027d8:	b530      	push	{r4, r5, lr}
 80027da:	f890 4020 	ldrb.w	r4, [r0, #32]
 80027de:	2c01      	cmp	r4, #1
 80027e0:	f04f 0402 	mov.w	r4, #2
 80027e4:	d017      	beq.n	0x8002816
 80027e6:	2501      	movs	r5, #1
 80027e8:	f880 4021 	strb.w	r4, [r0, #33]	; 0x21
 80027ec:	6804      	ldr	r4, [r0, #0]
 80027ee:	f880 5020 	strb.w	r5, [r0, #32]
 80027f2:	6825      	ldr	r5, [r4, #0]
 80027f4:	f025 0501 	bic.w	r5, r5, #1
 80027f8:	6025      	str	r5, [r4, #0]
 80027fa:	6063      	str	r3, [r4, #4]
 80027fc:	6843      	ldr	r3, [r0, #4]
 80027fe:	2000      	movs	r0, #0
 8002800:	2b10      	cmp	r3, #16
 8002802:	bf0b      	itete	eq
 8002804:	60a2      	streq	r2, [r4, #8]
 8002806:	60a1      	strne	r1, [r4, #8]
 8002808:	60e1      	streq	r1, [r4, #12]
 800280a:	60e2      	strne	r2, [r4, #12]
 800280c:	6823      	ldr	r3, [r4, #0]
 800280e:	f043 0301 	orr.w	r3, r3, #1
 8002812:	6023      	str	r3, [r4, #0]
 8002814:	bd30      	pop	{r4, r5, pc}
 8002816:	4620      	mov	r0, r4
 8002818:	bd30      	pop	{r4, r5, pc}
 800281a:	b530      	push	{r4, r5, lr}
 800281c:	f890 4020 	ldrb.w	r4, [r0, #32]
 8002820:	2c01      	cmp	r4, #1
 8002822:	f04f 0402 	mov.w	r4, #2
 8002826:	d023      	beq.n	0x8002870
 8002828:	2501      	movs	r5, #1
 800282a:	f880 4021 	strb.w	r4, [r0, #33]	; 0x21
 800282e:	6804      	ldr	r4, [r0, #0]
 8002830:	f880 5020 	strb.w	r5, [r0, #32]
 8002834:	6825      	ldr	r5, [r4, #0]
 8002836:	f025 0501 	bic.w	r5, r5, #1
 800283a:	6025      	str	r5, [r4, #0]
 800283c:	6063      	str	r3, [r4, #4]
 800283e:	6843      	ldr	r3, [r0, #4]
 8002840:	2000      	movs	r0, #0
 8002842:	2b10      	cmp	r3, #16
 8002844:	bf0b      	itete	eq
 8002846:	60a2      	streq	r2, [r4, #8]
 8002848:	60a1      	strne	r1, [r4, #8]
 800284a:	60e1      	streq	r1, [r4, #12]
 800284c:	60e2      	strne	r2, [r4, #12]
 800284e:	6823      	ldr	r3, [r4, #0]
 8002850:	f043 0302 	orr.w	r3, r3, #2
 8002854:	6023      	str	r3, [r4, #0]
 8002856:	6823      	ldr	r3, [r4, #0]
 8002858:	f043 0304 	orr.w	r3, r3, #4
 800285c:	6023      	str	r3, [r4, #0]
 800285e:	6823      	ldr	r3, [r4, #0]
 8002860:	f043 0308 	orr.w	r3, r3, #8
 8002864:	6023      	str	r3, [r4, #0]
 8002866:	6823      	ldr	r3, [r4, #0]
 8002868:	f043 0301 	orr.w	r3, r3, #1
 800286c:	6023      	str	r3, [r4, #0]
 800286e:	bd30      	pop	{r4, r5, pc}
 8002870:	4620      	mov	r0, r4
 8002872:	bd30      	pop	{r4, r5, pc}
 8002874:	6802      	ldr	r2, [r0, #0]
 8002876:	b538      	push	{r3, r4, r5, lr}
 8002878:	6813      	ldr	r3, [r2, #0]
 800287a:	4604      	mov	r4, r0
 800287c:	f023 0301 	bic.w	r3, r3, #1
 8002880:	6013      	str	r3, [r2, #0]
 8002882:	f7ff fd7f 	bl	0x8002384
 8002886:	4605      	mov	r5, r0
 8002888:	6823      	ldr	r3, [r4, #0]
 800288a:	6818      	ldr	r0, [r3, #0]
 800288c:	f010 0001 	ands.w	r0, r0, #1
 8002890:	d105      	bne.n	0x800289e
 8002892:	2301      	movs	r3, #1
 8002894:	f884 0020 	strb.w	r0, [r4, #32]
 8002898:	f884 3021 	strb.w	r3, [r4, #33]	; 0x21
 800289c:	bd38      	pop	{r3, r4, r5, pc}
 800289e:	f7ff fd71 	bl	0x8002384
 80028a2:	1b40      	subs	r0, r0, r5
 80028a4:	f5b0 7f7a 	cmp.w	r0, #1000	; 0x3e8
 80028a8:	d9ee      	bls.n	0x8002888
 80028aa:	6b63      	ldr	r3, [r4, #52]	; 0x34
 80028ac:	2003      	movs	r0, #3
 80028ae:	f043 0320 	orr.w	r3, r3, #32
 80028b2:	6363      	str	r3, [r4, #52]	; 0x34
 80028b4:	2300      	movs	r3, #0
 80028b6:	f884 0021 	strb.w	r0, [r4, #33]	; 0x21
 80028ba:	f884 3020 	strb.w	r3, [r4, #32]
 80028be:	bd38      	pop	{r3, r4, r5, pc}
 80028c0:	e92d 4ff8 	stmdb	sp!, {r3, r4, r5, r6, r7, r8, r9, sl, fp, lr}
 80028c4:	4605      	mov	r5, r0
 80028c6:	4617      	mov	r7, r2
 80028c8:	4688      	mov	r8, r1
 80028ca:	6804      	ldr	r4, [r0, #0]
 80028cc:	4e7d      	ldr	r6, [pc, #500]	; (0x8002ac4)
 80028ce:	2900      	cmp	r1, #0
 80028d0:	d14c      	bne.n	0x800296c
 80028d2:	42b4      	cmp	r4, r6
 80028d4:	d060      	beq.n	0x8002998
 80028d6:	4b7c      	ldr	r3, [pc, #496]	; (0x8002ac8)
 80028d8:	429c      	cmp	r4, r3
 80028da:	d05f      	beq.n	0x800299c
 80028dc:	3314      	adds	r3, #20
 80028de:	429c      	cmp	r4, r3
 80028e0:	d05e      	beq.n	0x80029a0
 80028e2:	3314      	adds	r3, #20
 80028e4:	429c      	cmp	r4, r3
 80028e6:	d05e      	beq.n	0x80029a6
 80028e8:	3314      	adds	r3, #20
 80028ea:	429c      	cmp	r4, r3
 80028ec:	d05e      	beq.n	0x80029ac
 80028ee:	3314      	adds	r3, #20
 80028f0:	429c      	cmp	r4, r3
 80028f2:	bf0c      	ite	eq
 80028f4:	f44f 1400 	moveq.w	r4, #2097152	; 0x200000
 80028f8:	f04f 7400 	movne.w	r4, #33554432	; 0x2000000
 80028fc:	f7ff fd42 	bl	0x8002384
 8002900:	4681      	mov	r9, r0
 8002902:	f8df a1c4 	ldr.w	sl, [pc, #452]	; 0x8002ac8
 8002906:	f8df b1d0 	ldr.w	fp, [pc, #464]	; 0x8002ad8
 800290a:	4a70      	ldr	r2, [pc, #448]	; (0x8002acc)
 800290c:	4970      	ldr	r1, [pc, #448]	; (0x8002ad0)
 800290e:	4871      	ldr	r0, [pc, #452]	; (0x8002ad4)
 8002910:	f8df e1c8 	ldr.w	lr, [pc, #456]	; 0x8002adc
 8002914:	6813      	ldr	r3, [r2, #0]
 8002916:	421c      	tst	r4, r3
 8002918:	682b      	ldr	r3, [r5, #0]
 800291a:	d057      	beq.n	0x80029cc
 800291c:	f1b8 0f00 	cmp.w	r8, #0
 8002920:	f040 80aa 	bne.w	0x8002a78
 8002924:	42b3      	cmp	r3, r6
 8002926:	f000 809a 	beq.w	0x8002a5e
 800292a:	4a67      	ldr	r2, [pc, #412]	; (0x8002ac8)
 800292c:	4293      	cmp	r3, r2
 800292e:	f000 8098 	beq.w	0x8002a62
 8002932:	3214      	adds	r2, #20
 8002934:	4293      	cmp	r3, r2
 8002936:	f000 8096 	beq.w	0x8002a66
 800293a:	3214      	adds	r2, #20
 800293c:	4293      	cmp	r3, r2
 800293e:	f000 8095 	beq.w	0x8002a6c
 8002942:	3214      	adds	r2, #20
 8002944:	4293      	cmp	r3, r2
 8002946:	f000 8094 	beq.w	0x8002a72
 800294a:	3214      	adds	r2, #20
 800294c:	4293      	cmp	r3, r2
 800294e:	bf0c      	ite	eq
 8002950:	f44f 1300 	moveq.w	r3, #2097152	; 0x200000
 8002954:	f04f 7300 	movne.w	r3, #33554432	; 0x2000000
 8002958:	4a5c      	ldr	r2, [pc, #368]	; (0x8002acc)
 800295a:	6053      	str	r3, [r2, #4]
 800295c:	2301      	movs	r3, #1
 800295e:	2000      	movs	r0, #0
 8002960:	f885 3021 	strb.w	r3, [r5, #33]	; 0x21
 8002964:	f885 0020 	strb.w	r0, [r5, #32]
 8002968:	e8bd 8ff8 	ldmia.w	sp!, {r3, r4, r5, r6, r7, r8, r9, sl, fp, pc}
 800296c:	42b4      	cmp	r4, r6
 800296e:	d020      	beq.n	0x80029b2
 8002970:	4b55      	ldr	r3, [pc, #340]	; (0x8002ac8)
 8002972:	429c      	cmp	r4, r3
 8002974:	d01f      	beq.n	0x80029b6
 8002976:	3314      	adds	r3, #20
 8002978:	429c      	cmp	r4, r3
 800297a:	d01e      	beq.n	0x80029ba
 800297c:	3314      	adds	r3, #20
 800297e:	429c      	cmp	r4, r3
 8002980:	d01e      	beq.n	0x80029c0
 8002982:	3314      	adds	r3, #20
 8002984:	429c      	cmp	r4, r3
 8002986:	d01e      	beq.n	0x80029c6
 8002988:	3314      	adds	r3, #20
 800298a:	429c      	cmp	r4, r3
 800298c:	bf0c      	ite	eq
 800298e:	f44f 0480 	moveq.w	r4, #4194304	; 0x400000
 8002992:	f04f 6480 	movne.w	r4, #67108864	; 0x4000000
 8002996:	e7b1      	b.n	0x80028fc
 8002998:	2402      	movs	r4, #2
 800299a:	e7af      	b.n	0x80028fc
 800299c:	2420      	movs	r4, #32
 800299e:	e7ad      	b.n	0x80028fc
 80029a0:	f44f 7400 	mov.w	r4, #512	; 0x200
 80029a4:	e7aa      	b.n	0x80028fc
 80029a6:	f44f 5400 	mov.w	r4, #8192	; 0x2000
 80029aa:	e7a7      	b.n	0x80028fc
 80029ac:	f44f 3400 	mov.w	r4, #131072	; 0x20000
 80029b0:	e7a4      	b.n	0x80028fc
 80029b2:	2404      	movs	r4, #4
 80029b4:	e7a2      	b.n	0x80028fc
 80029b6:	2440      	movs	r4, #64	; 0x40
 80029b8:	e7a0      	b.n	0x80028fc
 80029ba:	f44f 6480 	mov.w	r4, #1024	; 0x400
 80029be:	e79d      	b.n	0x80028fc
 80029c0:	f44f 4480 	mov.w	r4, #16384	; 0x4000
 80029c4:	e79a      	b.n	0x80028fc
 80029c6:	f44f 2480 	mov.w	r4, #262144	; 0x40000
 80029ca:	e797      	b.n	0x80028fc
 80029cc:	42b3      	cmp	r3, r6
 80029ce:	f8d2 c000 	ldr.w	ip, [r2]
 80029d2:	d01f      	beq.n	0x8002a14
 80029d4:	4553      	cmp	r3, sl
 80029d6:	d01f      	beq.n	0x8002a18
 80029d8:	455b      	cmp	r3, fp
 80029da:	d01f      	beq.n	0x8002a1c
 80029dc:	428b      	cmp	r3, r1
 80029de:	d020      	beq.n	0x8002a22
 80029e0:	4283      	cmp	r3, r0
 80029e2:	d021      	beq.n	0x8002a28
 80029e4:	4573      	cmp	r3, lr
 80029e6:	bf0c      	ite	eq
 80029e8:	f44f 0300 	moveq.w	r3, #8388608	; 0x800000
 80029ec:	f04f 6300 	movne.w	r3, #134217728	; 0x8000000
 80029f0:	ea13 0f0c 	tst.w	r3, ip
 80029f4:	d01b      	beq.n	0x8002a2e
 80029f6:	4a35      	ldr	r2, [pc, #212]	; (0x8002acc)
 80029f8:	2001      	movs	r0, #1
 80029fa:	6053      	str	r3, [r2, #4]
 80029fc:	6b6b      	ldr	r3, [r5, #52]	; 0x34
 80029fe:	f043 0301 	orr.w	r3, r3, #1
 8002a02:	636b      	str	r3, [r5, #52]	; 0x34
 8002a04:	2304      	movs	r3, #4
 8002a06:	f885 3021 	strb.w	r3, [r5, #33]	; 0x21
 8002a0a:	2300      	movs	r3, #0
 8002a0c:	f885 3020 	strb.w	r3, [r5, #32]
 8002a10:	e8bd 8ff8 	ldmia.w	sp!, {r3, r4, r5, r6, r7, r8, r9, sl, fp, pc}
 8002a14:	2308      	movs	r3, #8
 8002a16:	e7eb      	b.n	0x80029f0
 8002a18:	2380      	movs	r3, #128	; 0x80
 8002a1a:	e7e9      	b.n	0x80029f0
 8002a1c:	f44f 6300 	mov.w	r3, #2048	; 0x800
 8002a20:	e7e6      	b.n	0x80029f0
 8002a22:	f44f 4300 	mov.w	r3, #32768	; 0x8000
 8002a26:	e7e3      	b.n	0x80029f0
 8002a28:	f44f 2300 	mov.w	r3, #524288	; 0x80000
 8002a2c:	e7e0      	b.n	0x80029f0
 8002a2e:	1c7b      	adds	r3, r7, #1
 8002a30:	f43f af70 	beq.w	0x8002914
 8002a34:	b95f      	cbnz	r7, 0x8002a4e
 8002a36:	6b6b      	ldr	r3, [r5, #52]	; 0x34
 8002a38:	2003      	movs	r0, #3
 8002a3a:	f043 0320 	orr.w	r3, r3, #32
 8002a3e:	636b      	str	r3, [r5, #52]	; 0x34
 8002a40:	2300      	movs	r3, #0
 8002a42:	f885 0021 	strb.w	r0, [r5, #33]	; 0x21
 8002a46:	f885 3020 	strb.w	r3, [r5, #32]
 8002a4a:	e8bd 8ff8 	ldmia.w	sp!, {r3, r4, r5, r6, r7, r8, r9, sl, fp, pc}
 8002a4e:	f7ff fc99 	bl	0x8002384
 8002a52:	eba0 0009 	sub.w	r0, r0, r9
 8002a56:	4287      	cmp	r7, r0
 8002a58:	f4bf af57 	bcs.w	0x800290a
 8002a5c:	e7eb      	b.n	0x8002a36
 8002a5e:	2302      	movs	r3, #2
 8002a60:	e77a      	b.n	0x8002958
 8002a62:	2320      	movs	r3, #32
 8002a64:	e778      	b.n	0x8002958
 8002a66:	f44f 7300 	mov.w	r3, #512	; 0x200
 8002a6a:	e775      	b.n	0x8002958
 8002a6c:	f44f 5300 	mov.w	r3, #8192	; 0x2000
 8002a70:	e772      	b.n	0x8002958
 8002a72:	f44f 3300 	mov.w	r3, #131072	; 0x20000
 8002a76:	e76f      	b.n	0x8002958
 8002a78:	42b3      	cmp	r3, r6
 8002a7a:	d016      	beq.n	0x8002aaa
 8002a7c:	4a12      	ldr	r2, [pc, #72]	; (0x8002ac8)
 8002a7e:	4293      	cmp	r3, r2
 8002a80:	d015      	beq.n	0x8002aae
 8002a82:	3214      	adds	r2, #20
 8002a84:	4293      	cmp	r3, r2
 8002a86:	d014      	beq.n	0x8002ab2
 8002a88:	3214      	adds	r2, #20
 8002a8a:	4293      	cmp	r3, r2
 8002a8c:	d014      	beq.n	0x8002ab8
 8002a8e:	3214      	adds	r2, #20
 8002a90:	4293      	cmp	r3, r2
 8002a92:	d014      	beq.n	0x8002abe
 8002a94:	3214      	adds	r2, #20
 8002a96:	4293      	cmp	r3, r2
 8002a98:	bf0c      	ite	eq
 8002a9a:	f44f 0380 	moveq.w	r3, #4194304	; 0x400000
 8002a9e:	f04f 6380 	movne.w	r3, #67108864	; 0x4000000
 8002aa2:	4a0a      	ldr	r2, [pc, #40]	; (0x8002acc)
 8002aa4:	6053      	str	r3, [r2, #4]
 8002aa6:	2311      	movs	r3, #17
 8002aa8:	e759      	b.n	0x800295e
 8002aaa:	2304      	movs	r3, #4
 8002aac:	e7f9      	b.n	0x8002aa2
 8002aae:	2340      	movs	r3, #64	; 0x40
 8002ab0:	e7f7      	b.n	0x8002aa2
 8002ab2:	f44f 6380 	mov.w	r3, #1024	; 0x400
 8002ab6:	e7f4      	b.n	0x8002aa2
 8002ab8:	f44f 4380 	mov.w	r3, #16384	; 0x4000
 8002abc:	e7f1      	b.n	0x8002aa2
 8002abe:	f44f 2380 	mov.w	r3, #262144	; 0x40000
 8002ac2:	e7ee      	b.n	0x8002aa2
 8002ac4:	0008      	movs	r0, r1
 8002ac6:	4002      	ands	r2, r0
 8002ac8:	001c      	movs	r4, r3
 8002aca:	4002      	ands	r2, r0
 8002acc:	0000      	movs	r0, r0
 8002ace:	4002      	ands	r2, r0
 8002ad0:	0044      	lsls	r4, r0, #1
 8002ad2:	4002      	ands	r2, r0
 8002ad4:	0058      	lsls	r0, r3, #1
 8002ad6:	4002      	ands	r2, r0
 8002ad8:	0030      	movs	r0, r6
 8002ada:	4002      	ands	r2, r0
 8002adc:	006c      	lsls	r4, r5, #1
 8002ade:	4002      	ands	r2, r0
 8002ae0:	b570      	push	{r4, r5, r6, lr}
 8002ae2:	6802      	ldr	r2, [r0, #0]
 8002ae4:	4d5f      	ldr	r5, [pc, #380]	; (0x8002c64)
 8002ae6:	4b60      	ldr	r3, [pc, #384]	; (0x8002c68)
 8002ae8:	42aa      	cmp	r2, r5
 8002aea:	4604      	mov	r4, r0
 8002aec:	6819      	ldr	r1, [r3, #0]
 8002aee:	f000 8091 	beq.w	0x8002c14
 8002af2:	331c      	adds	r3, #28
 8002af4:	429a      	cmp	r2, r3
 8002af6:	f000 808f 	beq.w	0x8002c18
 8002afa:	3314      	adds	r3, #20
 8002afc:	429a      	cmp	r2, r3
 8002afe:	f000 808d 	beq.w	0x8002c1c
 8002b02:	3314      	adds	r3, #20
 8002b04:	429a      	cmp	r2, r3
 8002b06:	f000 808c 	beq.w	0x8002c22
 8002b0a:	3314      	adds	r3, #20
 8002b0c:	429a      	cmp	r2, r3
 8002b0e:	f000 808b 	beq.w	0x8002c28
 8002b12:	3314      	adds	r3, #20
 8002b14:	429a      	cmp	r2, r3
 8002b16:	bf0c      	ite	eq
 8002b18:	f44f 0300 	moveq.w	r3, #8388608	; 0x800000
 8002b1c:	f04f 6300 	movne.w	r3, #134217728	; 0x8000000
 8002b20:	420b      	tst	r3, r1
 8002b22:	d016      	beq.n	0x8002b52
 8002b24:	6811      	ldr	r1, [r2, #0]
 8002b26:	0708      	lsls	r0, r1, #28
 8002b28:	d513      	bpl.n	0x8002b52
 8002b2a:	6811      	ldr	r1, [r2, #0]
 8002b2c:	f021 0108 	bic.w	r1, r1, #8
 8002b30:	6011      	str	r1, [r2, #0]
 8002b32:	4a4d      	ldr	r2, [pc, #308]	; (0x8002c68)
 8002b34:	6053      	str	r3, [r2, #4]
 8002b36:	6b63      	ldr	r3, [r4, #52]	; 0x34
 8002b38:	f043 0301 	orr.w	r3, r3, #1
 8002b3c:	6363      	str	r3, [r4, #52]	; 0x34
 8002b3e:	2304      	movs	r3, #4
 8002b40:	f884 3021 	strb.w	r3, [r4, #33]	; 0x21
 8002b44:	2300      	movs	r3, #0
 8002b46:	f884 3020 	strb.w	r3, [r4, #32]
 8002b4a:	6b23      	ldr	r3, [r4, #48]	; 0x30
 8002b4c:	b10b      	cbz	r3, 0x8002b52
 8002b4e:	4620      	mov	r0, r4
 8002b50:	4798      	blx	r3
 8002b52:	4b45      	ldr	r3, [pc, #276]	; (0x8002c68)
 8002b54:	6819      	ldr	r1, [r3, #0]
 8002b56:	6823      	ldr	r3, [r4, #0]
 8002b58:	42ab      	cmp	r3, r5
 8002b5a:	d068      	beq.n	0x8002c2e
 8002b5c:	4a43      	ldr	r2, [pc, #268]	; (0x8002c6c)
 8002b5e:	4293      	cmp	r3, r2
 8002b60:	d067      	beq.n	0x8002c32
 8002b62:	3214      	adds	r2, #20
 8002b64:	4293      	cmp	r3, r2
 8002b66:	d066      	beq.n	0x8002c36
 8002b68:	3214      	adds	r2, #20
 8002b6a:	4293      	cmp	r3, r2
 8002b6c:	d066      	beq.n	0x8002c3c
 8002b6e:	3214      	adds	r2, #20
 8002b70:	4293      	cmp	r3, r2
 8002b72:	d066      	beq.n	0x8002c42
 8002b74:	3214      	adds	r2, #20
 8002b76:	4293      	cmp	r3, r2
 8002b78:	bf0c      	ite	eq
 8002b7a:	f44f 0280 	moveq.w	r2, #4194304	; 0x400000
 8002b7e:	f04f 6280 	movne.w	r2, #67108864	; 0x4000000
 8002b82:	420a      	tst	r2, r1
 8002b84:	d012      	beq.n	0x8002bac
 8002b86:	6819      	ldr	r1, [r3, #0]
 8002b88:	0749      	lsls	r1, r1, #29
 8002b8a:	d50f      	bpl.n	0x8002bac
 8002b8c:	6819      	ldr	r1, [r3, #0]
 8002b8e:	068e      	lsls	r6, r1, #26
 8002b90:	bf5e      	ittt	pl
 8002b92:	6819      	ldrpl	r1, [r3, #0]
 8002b94:	f021 0104 	bicpl.w	r1, r1, #4
 8002b98:	6019      	strpl	r1, [r3, #0]
 8002b9a:	4b33      	ldr	r3, [pc, #204]	; (0x8002c68)
 8002b9c:	605a      	str	r2, [r3, #4]
 8002b9e:	2311      	movs	r3, #17
 8002ba0:	f884 3021 	strb.w	r3, [r4, #33]	; 0x21
 8002ba4:	6ae3      	ldr	r3, [r4, #44]	; 0x2c
 8002ba6:	b10b      	cbz	r3, 0x8002bac
 8002ba8:	4620      	mov	r0, r4
 8002baa:	4798      	blx	r3
 8002bac:	4b2e      	ldr	r3, [pc, #184]	; (0x8002c68)
 8002bae:	6819      	ldr	r1, [r3, #0]
 8002bb0:	6823      	ldr	r3, [r4, #0]
 8002bb2:	42ab      	cmp	r3, r5
 8002bb4:	d048      	beq.n	0x8002c48
 8002bb6:	4a2d      	ldr	r2, [pc, #180]	; (0x8002c6c)
 8002bb8:	4293      	cmp	r3, r2
 8002bba:	d047      	beq.n	0x8002c4c
 8002bbc:	3214      	adds	r2, #20
 8002bbe:	4293      	cmp	r3, r2
 8002bc0:	d046      	beq.n	0x8002c50
 8002bc2:	3214      	adds	r2, #20
 8002bc4:	4293      	cmp	r3, r2
 8002bc6:	d046      	beq.n	0x8002c56
 8002bc8:	3214      	adds	r2, #20
 8002bca:	4293      	cmp	r3, r2
 8002bcc:	d046      	beq.n	0x8002c5c
 8002bce:	3214      	adds	r2, #20
 8002bd0:	4293      	cmp	r3, r2
 8002bd2:	bf0c      	ite	eq
 8002bd4:	f44f 1200 	moveq.w	r2, #2097152	; 0x200000
 8002bd8:	f04f 7200 	movne.w	r2, #33554432	; 0x2000000
 8002bdc:	420a      	tst	r2, r1
 8002bde:	d040      	beq.n	0x8002c62
 8002be0:	6819      	ldr	r1, [r3, #0]
 8002be2:	0788      	lsls	r0, r1, #30
 8002be4:	d53d      	bpl.n	0x8002c62
 8002be6:	6819      	ldr	r1, [r3, #0]
 8002be8:	0689      	lsls	r1, r1, #26
 8002bea:	bf5e      	ittt	pl
 8002bec:	6819      	ldrpl	r1, [r3, #0]
 8002bee:	f021 0102 	bicpl.w	r1, r1, #2
 8002bf2:	6019      	strpl	r1, [r3, #0]
 8002bf4:	4b1c      	ldr	r3, [pc, #112]	; (0x8002c68)
 8002bf6:	605a      	str	r2, [r3, #4]
 8002bf8:	6b63      	ldr	r3, [r4, #52]	; 0x34
 8002bfa:	6363      	str	r3, [r4, #52]	; 0x34
 8002bfc:	2301      	movs	r3, #1
 8002bfe:	f884 3021 	strb.w	r3, [r4, #33]	; 0x21
 8002c02:	2300      	movs	r3, #0
 8002c04:	f884 3020 	strb.w	r3, [r4, #32]
 8002c08:	6aa3      	ldr	r3, [r4, #40]	; 0x28
 8002c0a:	b353      	cbz	r3, 0x8002c62
 8002c0c:	4620      	mov	r0, r4
 8002c0e:	e8bd 4070 	ldmia.w	sp!, {r4, r5, r6, lr}
 8002c12:	4718      	bx	r3
 8002c14:	2308      	movs	r3, #8
 8002c16:	e783      	b.n	0x8002b20
 8002c18:	2380      	movs	r3, #128	; 0x80
 8002c1a:	e781      	b.n	0x8002b20
 8002c1c:	f44f 6300 	mov.w	r3, #2048	; 0x800
 8002c20:	e77e      	b.n	0x8002b20
 8002c22:	f44f 4300 	mov.w	r3, #32768	; 0x8000
 8002c26:	e77b      	b.n	0x8002b20
 8002c28:	f44f 2300 	mov.w	r3, #524288	; 0x80000
 8002c2c:	e778      	b.n	0x8002b20
 8002c2e:	2204      	movs	r2, #4
 8002c30:	e7a7      	b.n	0x8002b82
 8002c32:	2240      	movs	r2, #64	; 0x40
 8002c34:	e7a5      	b.n	0x8002b82
 8002c36:	f44f 6280 	mov.w	r2, #1024	; 0x400
 8002c3a:	e7a2      	b.n	0x8002b82
 8002c3c:	f44f 4280 	mov.w	r2, #16384	; 0x4000
 8002c40:	e79f      	b.n	0x8002b82
 8002c42:	f44f 2280 	mov.w	r2, #262144	; 0x40000
 8002c46:	e79c      	b.n	0x8002b82
 8002c48:	2202      	movs	r2, #2
 8002c4a:	e7c7      	b.n	0x8002bdc
 8002c4c:	2220      	movs	r2, #32
 8002c4e:	e7c5      	b.n	0x8002bdc
 8002c50:	f44f 7200 	mov.w	r2, #512	; 0x200
 8002c54:	e7c2      	b.n	0x8002bdc
 8002c56:	f44f 5200 	mov.w	r2, #8192	; 0x2000
 8002c5a:	e7bf      	b.n	0x8002bdc
 8002c5c:	f44f 3200 	mov.w	r2, #131072	; 0x20000
 8002c60:	e7bc      	b.n	0x8002bdc
 8002c62:	bd70      	pop	{r4, r5, r6, pc}
 8002c64:	0008      	movs	r0, r1
 8002c66:	4002      	ands	r2, r0
 8002c68:	0000      	movs	r0, r0
 8002c6a:	4002      	ands	r2, r0
 8002c6c:	001c      	movs	r4, r3
 8002c6e:	4002      	ands	r2, r0
 8002c70:	f890 0021 	ldrb.w	r0, [r0, #33]	; 0x21
 8002c74:	4770      	bx	lr
 8002c76:	6b40      	ldr	r0, [r0, #52]	; 0x34
 8002c78:	4770      	bx	lr
 8002c7a:	0000      	movs	r0, r0
 8002c7c:	4b10      	ldr	r3, [pc, #64]	; (0x8002cc0)
 8002c7e:	68da      	ldr	r2, [r3, #12]
 8002c80:	06d0      	lsls	r0, r2, #27
 8002c82:	bf41      	itttt	mi
 8002c84:	490f      	ldrmi	r1, [pc, #60]	; (0x8002cc4)
 8002c86:	69ca      	ldrmi	r2, [r1, #28]
 8002c88:	f042 0202 	orrmi.w	r2, r2, #2
 8002c8c:	61ca      	strmi	r2, [r1, #28]
 8002c8e:	68db      	ldr	r3, [r3, #12]
 8002c90:	0759      	lsls	r1, r3, #29
 8002c92:	bf41      	itttt	mi
 8002c94:	4a0b      	ldrmi	r2, [pc, #44]	; (0x8002cc4)
 8002c96:	69d3      	ldrmi	r3, [r2, #28]
 8002c98:	f043 0301 	orrmi.w	r3, r3, #1
 8002c9c:	61d3      	strmi	r3, [r2, #28]
 8002c9e:	4b08      	ldr	r3, [pc, #32]	; (0x8002cc0)
 8002ca0:	69da      	ldr	r2, [r3, #28]
 8002ca2:	07d2      	lsls	r2, r2, #31
 8002ca4:	d508      	bpl.n	0x8002cb8
 8002ca6:	4907      	ldr	r1, [pc, #28]	; (0x8002cc4)
 8002ca8:	69ca      	ldr	r2, [r1, #28]
 8002caa:	f042 0204 	orr.w	r2, r2, #4
 8002cae:	61ca      	str	r2, [r1, #28]
 8002cb0:	69da      	ldr	r2, [r3, #28]
 8002cb2:	f022 0201 	bic.w	r2, r2, #1
 8002cb6:	61da      	str	r2, [r3, #28]
 8002cb8:	2214      	movs	r2, #20
 8002cba:	60da      	str	r2, [r3, #12]
 8002cbc:	4770      	bx	lr
 8002cbe:	bf00      	nop
 8002cc0:	2000      	movs	r0, #0
 8002cc2:	4002      	ands	r2, r0
 8002cc4:	1530      	asrs	r0, r6, #20
 8002cc6:	2000      	movs	r0, #0
 8002cc8:	b570      	push	{r4, r5, r6, lr}
 8002cca:	461d      	mov	r5, r3
 8002ccc:	4b13      	ldr	r3, [pc, #76]	; (0x8002d1c)
 8002cce:	4614      	mov	r4, r2
 8002cd0:	7e1a      	ldrb	r2, [r3, #24]
 8002cd2:	2a01      	cmp	r2, #1
 8002cd4:	d020      	beq.n	0x8002d18
 8002cd6:	2201      	movs	r2, #1
 8002cd8:	4e11      	ldr	r6, [pc, #68]	; (0x8002d20)
 8002cda:	761a      	strb	r2, [r3, #24]
 8002cdc:	6932      	ldr	r2, [r6, #16]
 8002cde:	2801      	cmp	r0, #1
 8002ce0:	f442 52a0 	orr.w	r2, r2, #5120	; 0x1400
 8002ce4:	6132      	str	r2, [r6, #16]
 8002ce6:	6099      	str	r1, [r3, #8]
 8002ce8:	e9c3 4504 	strd	r4, r5, [r3, #16]
 8002cec:	d10c      	bne.n	0x8002d08
 8002cee:	2203      	movs	r2, #3
 8002cf0:	701a      	strb	r2, [r3, #0]
 8002cf2:	6058      	str	r0, [r3, #4]
 8002cf4:	2000      	movs	r0, #0
 8002cf6:	4a0a      	ldr	r2, [pc, #40]	; (0x8002d20)
 8002cf8:	61d8      	str	r0, [r3, #28]
 8002cfa:	6913      	ldr	r3, [r2, #16]
 8002cfc:	b2a4      	uxth	r4, r4
 8002cfe:	f043 0301 	orr.w	r3, r3, #1
 8002d02:	6113      	str	r3, [r2, #16]
 8002d04:	800c      	strh	r4, [r1, #0]
 8002d06:	bd70      	pop	{r4, r5, r6, pc}
 8002d08:	2802      	cmp	r0, #2
 8002d0a:	f04f 0204 	mov.w	r2, #4
 8002d0e:	d0ef      	beq.n	0x8002cf0
 8002d10:	2005      	movs	r0, #5
 8002d12:	7018      	strb	r0, [r3, #0]
 8002d14:	605a      	str	r2, [r3, #4]
 8002d16:	e7ed      	b.n	0x8002cf4
 8002d18:	2002      	movs	r0, #2
 8002d1a:	bd70      	pop	{r4, r5, r6, pc}
 8002d1c:	1530      	asrs	r0, r6, #20
 8002d1e:	2000      	movs	r0, #0
 8002d20:	2000      	movs	r0, #0
 8002d22:	4002      	ands	r2, r0
 8002d24:	4770      	bx	lr
 8002d26:	4770      	bx	lr
 8002d28:	4b42      	ldr	r3, [pc, #264]	; (0x8002e34)
 8002d2a:	b570      	push	{r4, r5, r6, lr}
 8002d2c:	68da      	ldr	r2, [r3, #12]
 8002d2e:	4c42      	ldr	r4, [pc, #264]	; (0x8002e38)
 8002d30:	f012 0f10 	tst.w	r2, #16
 8002d34:	d102      	bne.n	0x8002d3c
 8002d36:	68db      	ldr	r3, [r3, #12]
 8002d38:	075a      	lsls	r2, r3, #29
 8002d3a:	d50a      	bpl.n	0x8002d52
 8002d3c:	f04f 33ff 	mov.w	r3, #4294967295	; 0xffffffff
 8002d40:	68a5      	ldr	r5, [r4, #8]
 8002d42:	60a3      	str	r3, [r4, #8]
 8002d44:	f7ff ff9a 	bl	0x8002c7c
 8002d48:	4628      	mov	r0, r5
 8002d4a:	f7ff ffec 	bl	0x8002d26
 8002d4e:	2300      	movs	r3, #0
 8002d50:	7023      	strb	r3, [r4, #0]
 8002d52:	4d38      	ldr	r5, [pc, #224]	; (0x8002e34)
 8002d54:	68eb      	ldr	r3, [r5, #12]
 8002d56:	069b      	lsls	r3, r3, #26
 8002d58:	d518      	bpl.n	0x8002d8c
 8002d5a:	2320      	movs	r3, #32
 8002d5c:	60eb      	str	r3, [r5, #12]
 8002d5e:	7823      	ldrb	r3, [r4, #0]
 8002d60:	b1a3      	cbz	r3, 0x8002d8c
 8002d62:	7823      	ldrb	r3, [r4, #0]
 8002d64:	2b01      	cmp	r3, #1
 8002d66:	d127      	bne.n	0x8002db8
 8002d68:	6863      	ldr	r3, [r4, #4]
 8002d6a:	3b01      	subs	r3, #1
 8002d6c:	6063      	str	r3, [r4, #4]
 8002d6e:	6863      	ldr	r3, [r4, #4]
 8002d70:	b1db      	cbz	r3, 0x8002daa
 8002d72:	68a0      	ldr	r0, [r4, #8]
 8002d74:	f7ff ffd6 	bl	0x8002d24
 8002d78:	68a0      	ldr	r0, [r4, #8]
 8002d7a:	f500 6080 	add.w	r0, r0, #1024	; 0x400
 8002d7e:	60a0      	str	r0, [r4, #8]
 8002d80:	692b      	ldr	r3, [r5, #16]
 8002d82:	f023 0302 	bic.w	r3, r3, #2
 8002d86:	612b      	str	r3, [r5, #16]
 8002d88:	f000 faae 	bl	0x80032e8
 8002d8c:	7823      	ldrb	r3, [r4, #0]
 8002d8e:	f003 01ff 	and.w	r1, r3, #255	; 0xff
 8002d92:	b94b      	cbnz	r3, 0x8002da8
 8002d94:	4b27      	ldr	r3, [pc, #156]	; (0x8002e34)
 8002d96:	691a      	ldr	r2, [r3, #16]
 8002d98:	f022 0207 	bic.w	r2, r2, #7
 8002d9c:	611a      	str	r2, [r3, #16]
 8002d9e:	691a      	ldr	r2, [r3, #16]
 8002da0:	f422 52a0 	bic.w	r2, r2, #5120	; 0x1400
 8002da4:	611a      	str	r2, [r3, #16]
 8002da6:	7621      	strb	r1, [r4, #24]
 8002da8:	bd70      	pop	{r4, r5, r6, pc}
 8002daa:	f04f 30ff 	mov.w	r0, #4294967295	; 0xffffffff
 8002dae:	60a0      	str	r0, [r4, #8]
 8002db0:	7023      	strb	r3, [r4, #0]
 8002db2:	f7ff ffb7 	bl	0x8002d24
 8002db6:	e7e9      	b.n	0x8002d8c
 8002db8:	7823      	ldrb	r3, [r4, #0]
 8002dba:	2b02      	cmp	r3, #2
 8002dbc:	d109      	bne.n	0x8002dd2
 8002dbe:	692b      	ldr	r3, [r5, #16]
 8002dc0:	2000      	movs	r0, #0
 8002dc2:	f023 0304 	bic.w	r3, r3, #4
 8002dc6:	612b      	str	r3, [r5, #16]
 8002dc8:	f7ff ffac 	bl	0x8002d24
 8002dcc:	2300      	movs	r3, #0
 8002dce:	7023      	strb	r3, [r4, #0]
 8002dd0:	e7dc      	b.n	0x8002d8c
 8002dd2:	6863      	ldr	r3, [r4, #4]
 8002dd4:	3b01      	subs	r3, #1
 8002dd6:	6063      	str	r3, [r4, #4]
 8002dd8:	6863      	ldr	r3, [r4, #4]
 8002dda:	b1d3      	cbz	r3, 0x8002e12
 8002ddc:	68a3      	ldr	r3, [r4, #8]
 8002dde:	3302      	adds	r3, #2
 8002de0:	60a3      	str	r3, [r4, #8]
 8002de2:	68a6      	ldr	r6, [r4, #8]
 8002de4:	e9d4 0104 	ldrd	r0, r1, [r4, #16]
 8002de8:	0c02      	lsrs	r2, r0, #16
 8002dea:	ea42 4201 	orr.w	r2, r2, r1, lsl #16
 8002dee:	0c0b      	lsrs	r3, r1, #16
 8002df0:	e9c4 2304 	strd	r2, r3, [r4, #16]
 8002df4:	692b      	ldr	r3, [r5, #16]
 8002df6:	f023 0301 	bic.w	r3, r3, #1
 8002dfa:	612b      	str	r3, [r5, #16]
 8002dfc:	e9d4 2304 	ldrd	r2, r3, [r4, #16]
 8002e00:	2300      	movs	r3, #0
 8002e02:	61e3      	str	r3, [r4, #28]
 8002e04:	692b      	ldr	r3, [r5, #16]
 8002e06:	b292      	uxth	r2, r2
 8002e08:	f043 0301 	orr.w	r3, r3, #1
 8002e0c:	612b      	str	r3, [r5, #16]
 8002e0e:	8032      	strh	r2, [r6, #0]
 8002e10:	e7bc      	b.n	0x8002d8c
 8002e12:	7823      	ldrb	r3, [r4, #0]
 8002e14:	2b03      	cmp	r3, #3
 8002e16:	d106      	bne.n	0x8002e26
 8002e18:	68a0      	ldr	r0, [r4, #8]
 8002e1a:	f7ff ff83 	bl	0x8002d24
 8002e1e:	f04f 33ff 	mov.w	r3, #4294967295	; 0xffffffff
 8002e22:	60a3      	str	r3, [r4, #8]
 8002e24:	e7d2      	b.n	0x8002dcc
 8002e26:	7823      	ldrb	r3, [r4, #0]
 8002e28:	68a0      	ldr	r0, [r4, #8]
 8002e2a:	2b04      	cmp	r3, #4
 8002e2c:	bf0c      	ite	eq
 8002e2e:	3802      	subeq	r0, #2
 8002e30:	3806      	subne	r0, #6
 8002e32:	e7f2      	b.n	0x8002e1a
 8002e34:	2000      	movs	r0, #0
 8002e36:	4002      	ands	r2, r0
 8002e38:	1530      	asrs	r0, r6, #20
 8002e3a:	2000      	movs	r0, #0
 8002e3c:	4b06      	ldr	r3, [pc, #24]	; (0x8002e58)
 8002e3e:	691a      	ldr	r2, [r3, #16]
 8002e40:	0612      	lsls	r2, r2, #24
 8002e42:	bf41      	itttt	mi
 8002e44:	4a05      	ldrmi	r2, [pc, #20]	; (0x8002e5c)
 8002e46:	2000      	movmi	r0, #0
 8002e48:	605a      	strmi	r2, [r3, #4]
 8002e4a:	f102 3288 	addmi.w	r2, r2, #2290649224	; 0x88888888
 8002e4e:	bf4c      	ite	mi
 8002e50:	605a      	strmi	r2, [r3, #4]
 8002e52:	2001      	movpl	r0, #1
 8002e54:	4770      	bx	lr
 8002e56:	bf00      	nop
 8002e58:	2000      	movs	r0, #0
 8002e5a:	4002      	ands	r2, r0
 8002e5c:	0123      	lsls	r3, r4, #4
 8002e5e:	4567      	cmp	r7, ip
 8002e60:	4a03      	ldr	r2, [pc, #12]	; (0x8002e70)
 8002e62:	2000      	movs	r0, #0
 8002e64:	6913      	ldr	r3, [r2, #16]
 8002e66:	f043 0380 	orr.w	r3, r3, #128	; 0x80
 8002e6a:	6113      	str	r3, [r2, #16]
 8002e6c:	4770      	bx	lr
 8002e6e:	bf00      	nop
 8002e70:	2000      	movs	r0, #0
 8002e72:	4002      	ands	r2, r0
 8002e74:	4b06      	ldr	r3, [pc, #24]	; (0x8002e90)
 8002e76:	6918      	ldr	r0, [r3, #16]
 8002e78:	f410 7000 	ands.w	r0, r0, #512	; 0x200
 8002e7c:	bf09      	itett	eq
 8002e7e:	4a05      	ldreq	r2, [pc, #20]	; (0x8002e94)
 8002e80:	2001      	movne	r0, #1
 8002e82:	609a      	streq	r2, [r3, #8]
 8002e84:	f102 3288 	addeq.w	r2, r2, #2290649224	; 0x88888888
 8002e88:	bf08      	it	eq
 8002e8a:	609a      	streq	r2, [r3, #8]
 8002e8c:	4770      	bx	lr
 8002e8e:	bf00      	nop
 8002e90:	2000      	movs	r0, #0
 8002e92:	4002      	ands	r2, r0
 8002e94:	0123      	lsls	r3, r4, #4
 8002e96:	4567      	cmp	r7, ip
 8002e98:	4a03      	ldr	r2, [pc, #12]	; (0x8002ea8)
 8002e9a:	2000      	movs	r0, #0
 8002e9c:	6913      	ldr	r3, [r2, #16]
 8002e9e:	f423 7300 	bic.w	r3, r3, #512	; 0x200
 8002ea2:	6113      	str	r3, [r2, #16]
 8002ea4:	4770      	bx	lr
 8002ea6:	bf00      	nop
 8002ea8:	2000      	movs	r0, #0
 8002eaa:	4002      	ands	r2, r0
 8002eac:	b508      	push	{r3, lr}
 8002eae:	f7ff fb37 	bl	0x8002520
 8002eb2:	2000      	movs	r0, #0
 8002eb4:	bd08      	pop	{r3, pc}
 8002eb6:	0000      	movs	r0, r0
 8002eb8:	4b01      	ldr	r3, [pc, #4]	; (0x8002ec0)
 8002eba:	69d8      	ldr	r0, [r3, #28]
 8002ebc:	4770      	bx	lr
 8002ebe:	bf00      	nop
 8002ec0:	1530      	asrs	r0, r6, #20
 8002ec2:	2000      	movs	r0, #0
 8002ec4:	b5f8      	push	{r3, r4, r5, r6, r7, lr}
 8002ec6:	4606      	mov	r6, r0
 8002ec8:	f7ff fa5c 	bl	0x8002384
 8002ecc:	4c11      	ldr	r4, [pc, #68]	; (0x8002f14)
 8002ece:	4607      	mov	r7, r0
 8002ed0:	4625      	mov	r5, r4
 8002ed2:	68e3      	ldr	r3, [r4, #12]
 8002ed4:	07d8      	lsls	r0, r3, #31
 8002ed6:	d412      	bmi.n	0x8002efe
 8002ed8:	68e3      	ldr	r3, [r4, #12]
 8002eda:	0699      	lsls	r1, r3, #26
 8002edc:	bf44      	itt	mi
 8002ede:	2320      	movmi	r3, #32
 8002ee0:	60e3      	strmi	r3, [r4, #12]
 8002ee2:	68eb      	ldr	r3, [r5, #12]
 8002ee4:	06da      	lsls	r2, r3, #27
 8002ee6:	d406      	bmi.n	0x8002ef6
 8002ee8:	69eb      	ldr	r3, [r5, #28]
 8002eea:	07db      	lsls	r3, r3, #31
 8002eec:	d403      	bmi.n	0x8002ef6
 8002eee:	68e8      	ldr	r0, [r5, #12]
 8002ef0:	f010 0004 	ands.w	r0, r0, #4
 8002ef4:	d002      	beq.n	0x8002efc
 8002ef6:	f7ff fec1 	bl	0x8002c7c
 8002efa:	2001      	movs	r0, #1
 8002efc:	bdf8      	pop	{r3, r4, r5, r6, r7, pc}
 8002efe:	1c73      	adds	r3, r6, #1
 8002f00:	d0e7      	beq.n	0x8002ed2
 8002f02:	b90e      	cbnz	r6, 0x8002f08
 8002f04:	2003      	movs	r0, #3
 8002f06:	bdf8      	pop	{r3, r4, r5, r6, r7, pc}
 8002f08:	f7ff fa3c 	bl	0x8002384
 8002f0c:	1bc0      	subs	r0, r0, r7
 8002f0e:	4286      	cmp	r6, r0
 8002f10:	d2df      	bcs.n	0x8002ed2
 8002f12:	e7f7      	b.n	0x8002f04
 8002f14:	2000      	movs	r0, #0
 8002f16:	4002      	ands	r2, r0
 8002f18:	e92d 4ff8 	stmdb	sp!, {r3, r4, r5, r6, r7, r8, r9, sl, fp, lr}
 8002f1c:	4c1f      	ldr	r4, [pc, #124]	; (0x8002f9c)
 8002f1e:	4699      	mov	r9, r3
 8002f20:	7e23      	ldrb	r3, [r4, #24]
 8002f22:	4605      	mov	r5, r0
 8002f24:	2b01      	cmp	r3, #1
 8002f26:	460f      	mov	r7, r1
 8002f28:	4690      	mov	r8, r2
 8002f2a:	d033      	beq.n	0x8002f94
 8002f2c:	2301      	movs	r3, #1
 8002f2e:	f24c 3050 	movw	r0, #50000	; 0xc350
 8002f32:	7623      	strb	r3, [r4, #24]
 8002f34:	f7ff ffc6 	bl	0x8002ec4
 8002f38:	bb40      	cbnz	r0, 0x8002f8c
 8002f3a:	2d01      	cmp	r5, #1
 8002f3c:	d003      	beq.n	0x8002f46
 8002f3e:	2d02      	cmp	r5, #2
 8002f40:	bf0c      	ite	eq
 8002f42:	2502      	moveq	r5, #2
 8002f44:	2504      	movne	r5, #4
 8002f46:	2600      	movs	r6, #0
 8002f48:	46b2      	mov	sl, r6
 8002f4a:	f8df b054 	ldr.w	fp, [pc, #84]	; 0x8002fa0
 8002f4e:	0132      	lsls	r2, r6, #4
 8002f50:	4640      	mov	r0, r8
 8002f52:	4649      	mov	r1, r9
 8002f54:	f7fd f8e6 	bl	0x8000124
 8002f58:	f8c4 a01c 	str.w	sl, [r4, #28]
 8002f5c:	f8db 3010 	ldr.w	r3, [fp, #16]
 8002f60:	b280      	uxth	r0, r0
 8002f62:	f043 0301 	orr.w	r3, r3, #1
 8002f66:	f8cb 3010 	str.w	r3, [fp, #16]
 8002f6a:	f827 0016 	strh.w	r0, [r7, r6, lsl #1]
 8002f6e:	f24c 3050 	movw	r0, #50000	; 0xc350
 8002f72:	f7ff ffa7 	bl	0x8002ec4
 8002f76:	f8db 3010 	ldr.w	r3, [fp, #16]
 8002f7a:	f023 0301 	bic.w	r3, r3, #1
 8002f7e:	f8cb 3010 	str.w	r3, [fp, #16]
 8002f82:	b918      	cbnz	r0, 0x8002f8c
 8002f84:	3601      	adds	r6, #1
 8002f86:	b2f3      	uxtb	r3, r6
 8002f88:	429d      	cmp	r5, r3
 8002f8a:	d8e0      	bhi.n	0x8002f4e
 8002f8c:	2300      	movs	r3, #0
 8002f8e:	7623      	strb	r3, [r4, #24]
 8002f90:	e8bd 8ff8 	ldmia.w	sp!, {r3, r4, r5, r6, r7, r8, r9, sl, fp, pc}
 8002f94:	2002      	movs	r0, #2
 8002f96:	e8bd 8ff8 	ldmia.w	sp!, {r3, r4, r5, r6, r7, r8, r9, sl, fp, pc}
 8002f9a:	bf00      	nop
 8002f9c:	1530      	asrs	r0, r6, #20
 8002f9e:	2000      	movs	r0, #0
 8002fa0:	2000      	movs	r0, #0
 8002fa2:	4002      	ands	r2, r0
 8002fa4:	2200      	movs	r2, #0
 8002fa6:	4b06      	ldr	r3, [pc, #24]	; (0x8002fc0)
 8002fa8:	61da      	str	r2, [r3, #28]
 8002faa:	4b06      	ldr	r3, [pc, #24]	; (0x8002fc4)
 8002fac:	691a      	ldr	r2, [r3, #16]
 8002fae:	f042 0204 	orr.w	r2, r2, #4
 8002fb2:	611a      	str	r2, [r3, #16]
 8002fb4:	691a      	ldr	r2, [r3, #16]
 8002fb6:	f042 0240 	orr.w	r2, r2, #64	; 0x40
 8002fba:	611a      	str	r2, [r3, #16]
 8002fbc:	4770      	bx	lr
 8002fbe:	bf00      	nop
 8002fc0:	1530      	asrs	r0, r6, #20
 8002fc2:	2000      	movs	r0, #0
 8002fc4:	2000      	movs	r0, #0
 8002fc6:	4002      	ands	r2, r0
 8002fc8:	b538      	push	{r3, r4, r5, lr}
 8002fca:	4605      	mov	r5, r0
 8002fcc:	f24c 3050 	movw	r0, #50000	; 0xc350
 8002fd0:	f7ff ff78 	bl	0x8002ec4
 8002fd4:	bb10      	cbnz	r0, 0x800301c
 8002fd6:	4b12      	ldr	r3, [pc, #72]	; (0x8003020)
 8002fd8:	4c12      	ldr	r4, [pc, #72]	; (0x8003024)
 8002fda:	61d8      	str	r0, [r3, #28]
 8002fdc:	6923      	ldr	r3, [r4, #16]
 8002fde:	f24c 3050 	movw	r0, #50000	; 0xc350
 8002fe2:	f043 0320 	orr.w	r3, r3, #32
 8002fe6:	6123      	str	r3, [r4, #16]
 8002fe8:	6923      	ldr	r3, [r4, #16]
 8002fea:	f043 0340 	orr.w	r3, r3, #64	; 0x40
 8002fee:	6123      	str	r3, [r4, #16]
 8002ff0:	f7ff ff68 	bl	0x8002ec4
 8002ff4:	6923      	ldr	r3, [r4, #16]
 8002ff6:	f023 0320 	bic.w	r3, r3, #32
 8002ffa:	6123      	str	r3, [r4, #16]
 8002ffc:	b970      	cbnz	r0, 0x800301c
 8002ffe:	6923      	ldr	r3, [r4, #16]
 8003000:	b2ad      	uxth	r5, r5
 8003002:	f043 0310 	orr.w	r3, r3, #16
 8003006:	6123      	str	r3, [r4, #16]
 8003008:	4b07      	ldr	r3, [pc, #28]	; (0x8003028)
 800300a:	f24c 3050 	movw	r0, #50000	; 0xc350
 800300e:	801d      	strh	r5, [r3, #0]
 8003010:	f7ff ff58 	bl	0x8002ec4
 8003014:	6923      	ldr	r3, [r4, #16]
 8003016:	f023 0310 	bic.w	r3, r3, #16
 800301a:	6123      	str	r3, [r4, #16]
 800301c:	bd38      	pop	{r3, r4, r5, pc}
 800301e:	bf00      	nop
 8003020:	1530      	asrs	r0, r6, #20
 8003022:	2000      	movs	r0, #0
 8003024:	2000      	movs	r0, #0
 8003026:	4002      	ands	r2, r0
 8003028:	f800 1fff 	strb.w	r1, [r0, #255]!
 800302c:	b538      	push	{r3, r4, r5, lr}
 800302e:	4c12      	ldr	r4, [pc, #72]	; (0x8003078)
 8003030:	f24c 3050 	movw	r0, #50000	; 0xc350
 8003034:	69e3      	ldr	r3, [r4, #28]
 8003036:	f013 0f02 	tst.w	r3, #2
 800303a:	bf14      	ite	ne
 800303c:	2500      	movne	r5, #0
 800303e:	25a5      	moveq	r5, #165	; 0xa5
 8003040:	f7ff ff40 	bl	0x8002ec4
 8003044:	b9b8      	cbnz	r0, 0x8003076
 8003046:	4a0d      	ldr	r2, [pc, #52]	; (0x800307c)
 8003048:	61d0      	str	r0, [r2, #28]
 800304a:	6923      	ldr	r3, [r4, #16]
 800304c:	f24c 3050 	movw	r0, #50000	; 0xc350
 8003050:	f043 0320 	orr.w	r3, r3, #32
 8003054:	6123      	str	r3, [r4, #16]
 8003056:	6923      	ldr	r3, [r4, #16]
 8003058:	f043 0340 	orr.w	r3, r3, #64	; 0x40
 800305c:	6123      	str	r3, [r4, #16]
 800305e:	f7ff ff31 	bl	0x8002ec4
 8003062:	6923      	ldr	r3, [r4, #16]
 8003064:	f023 0320 	bic.w	r3, r3, #32
 8003068:	6123      	str	r3, [r4, #16]
 800306a:	b920      	cbnz	r0, 0x8003076
 800306c:	4628      	mov	r0, r5
 800306e:	e8bd 4038 	ldmia.w	sp!, {r3, r4, r5, lr}
 8003072:	f7ff bfa9 	b.w	0x8002fc8
 8003076:	bd38      	pop	{r3, r4, r5, pc}
 8003078:	2000      	movs	r0, #0
 800307a:	4002      	ands	r2, r0
 800307c:	1530      	asrs	r0, r6, #20
 800307e:	2000      	movs	r0, #0
 8003080:	e92d 41f0 	stmdb	sp!, {r4, r5, r6, r7, r8, lr}
 8003084:	4d7a      	ldr	r5, [pc, #488]	; (0x8003270)
 8003086:	4606      	mov	r6, r0
 8003088:	7e2b      	ldrb	r3, [r5, #24]
 800308a:	2b01      	cmp	r3, #1
 800308c:	f000 80ec 	beq.w	0x8003268
 8003090:	2001      	movs	r0, #1
 8003092:	6833      	ldr	r3, [r6, #0]
 8003094:	7628      	strb	r0, [r5, #24]
 8003096:	07dc      	lsls	r4, r3, #31
 8003098:	f140 80a1 	bpl.w	0x80031de
 800309c:	6873      	ldr	r3, [r6, #4]
 800309e:	4f75      	ldr	r7, [pc, #468]	; (0x8003274)
 80030a0:	4283      	cmp	r3, r0
 80030a2:	68b4      	ldr	r4, [r6, #8]
 80030a4:	f8d7 8020 	ldr.w	r8, [r7, #32]
 80030a8:	f24c 3050 	movw	r0, #50000	; 0xc350
 80030ac:	d150      	bne.n	0x8003150
 80030ae:	f7ff ff09 	bl	0x8002ec4
 80030b2:	bb50      	cbnz	r0, 0x800310a
 80030b4:	61e8      	str	r0, [r5, #28]
 80030b6:	f7ff ffb9 	bl	0x800302c
 80030ba:	bb30      	cbnz	r0, 0x800310a
 80030bc:	693a      	ldr	r2, [r7, #16]
 80030be:	ea28 0404 	bic.w	r4, r8, r4
 80030c2:	b2e3      	uxtb	r3, r4
 80030c4:	f042 0210 	orr.w	r2, r2, #16
 80030c8:	2bff      	cmp	r3, #255	; 0xff
 80030ca:	613a      	str	r2, [r7, #16]
 80030cc:	d10c      	bne.n	0x80030e8
 80030ce:	f3c4 2307 	ubfx	r3, r4, #8, #8
 80030d2:	2bff      	cmp	r3, #255	; 0xff
 80030d4:	d11d      	bne.n	0x8003112
 80030d6:	f3c4 4307 	ubfx	r3, r4, #16, #8
 80030da:	2bff      	cmp	r3, #255	; 0xff
 80030dc:	d124      	bne.n	0x8003128
 80030de:	0e24      	lsrs	r4, r4, #24
 80030e0:	2cff      	cmp	r4, #255	; 0xff
 80030e2:	d12c      	bne.n	0x800313e
 80030e4:	2000      	movs	r0, #0
 80030e6:	e009      	b.n	0x80030fc
 80030e8:	4a63      	ldr	r2, [pc, #396]	; (0x8003278)
 80030ea:	f24c 3050 	movw	r0, #50000	; 0xc350
 80030ee:	8911      	ldrh	r1, [r2, #8]
 80030f0:	400b      	ands	r3, r1
 80030f2:	8113      	strh	r3, [r2, #8]
 80030f4:	f7ff fee6 	bl	0x8002ec4
 80030f8:	2800      	cmp	r0, #0
 80030fa:	d0e8      	beq.n	0x80030ce
 80030fc:	4a5d      	ldr	r2, [pc, #372]	; (0x8003274)
 80030fe:	6913      	ldr	r3, [r2, #16]
 8003100:	f023 0310 	bic.w	r3, r3, #16
 8003104:	6113      	str	r3, [r2, #16]
 8003106:	2800      	cmp	r0, #0
 8003108:	d069      	beq.n	0x80031de
 800310a:	2300      	movs	r3, #0
 800310c:	762b      	strb	r3, [r5, #24]
 800310e:	e8bd 81f0 	ldmia.w	sp!, {r4, r5, r6, r7, r8, pc}
 8003112:	4a59      	ldr	r2, [pc, #356]	; (0x8003278)
 8003114:	f24c 3050 	movw	r0, #50000	; 0xc350
 8003118:	8951      	ldrh	r1, [r2, #10]
 800311a:	400b      	ands	r3, r1
 800311c:	8153      	strh	r3, [r2, #10]
 800311e:	f7ff fed1 	bl	0x8002ec4
 8003122:	2800      	cmp	r0, #0
 8003124:	d0d7      	beq.n	0x80030d6
 8003126:	e7e9      	b.n	0x80030fc
 8003128:	4a53      	ldr	r2, [pc, #332]	; (0x8003278)
 800312a:	f24c 3050 	movw	r0, #50000	; 0xc350
 800312e:	8991      	ldrh	r1, [r2, #12]
 8003130:	400b      	ands	r3, r1
 8003132:	8193      	strh	r3, [r2, #12]
 8003134:	f7ff fec6 	bl	0x8002ec4
 8003138:	2800      	cmp	r0, #0
 800313a:	d0d0      	beq.n	0x80030de
 800313c:	e7de      	b.n	0x80030fc
 800313e:	4b4e      	ldr	r3, [pc, #312]	; (0x8003278)
 8003140:	89da      	ldrh	r2, [r3, #14]
 8003142:	4014      	ands	r4, r2
 8003144:	81dc      	strh	r4, [r3, #14]
 8003146:	f24c 3050 	movw	r0, #50000	; 0xc350
 800314a:	f7ff febb 	bl	0x8002ec4
 800314e:	e7d5      	b.n	0x80030fc
 8003150:	f7ff feb8 	bl	0x8002ec4
 8003154:	2800      	cmp	r0, #0
 8003156:	d1d8      	bne.n	0x800310a
 8003158:	61e8      	str	r0, [r5, #28]
 800315a:	f7ff ff67 	bl	0x800302c
 800315e:	2800      	cmp	r0, #0
 8003160:	d1d3      	bne.n	0x800310a
 8003162:	693a      	ldr	r2, [r7, #16]
 8003164:	ea44 0408 	orr.w	r4, r4, r8
 8003168:	b2e3      	uxtb	r3, r4
 800316a:	f042 0210 	orr.w	r2, r2, #16
 800316e:	2bff      	cmp	r3, #255	; 0xff
 8003170:	613a      	str	r2, [r7, #16]
 8003172:	d110      	bne.n	0x8003196
 8003174:	f3c4 2307 	ubfx	r3, r4, #8, #8
 8003178:	2bff      	cmp	r3, #255	; 0xff
 800317a:	d118      	bne.n	0x80031ae
 800317c:	f3c4 4307 	ubfx	r3, r4, #16, #8
 8003180:	2bff      	cmp	r3, #255	; 0xff
 8003182:	d120      	bne.n	0x80031c6
 8003184:	0e24      	lsrs	r4, r4, #24
 8003186:	2cff      	cmp	r4, #255	; 0xff
 8003188:	d0ac      	beq.n	0x80030e4
 800318a:	4a3b      	ldr	r2, [pc, #236]	; (0x8003278)
 800318c:	89d3      	ldrh	r3, [r2, #14]
 800318e:	b29b      	uxth	r3, r3
 8003190:	431c      	orrs	r4, r3
 8003192:	81d4      	strh	r4, [r2, #14]
 8003194:	e7d7      	b.n	0x8003146
 8003196:	4938      	ldr	r1, [pc, #224]	; (0x8003278)
 8003198:	f24c 3050 	movw	r0, #50000	; 0xc350
 800319c:	890a      	ldrh	r2, [r1, #8]
 800319e:	b292      	uxth	r2, r2
 80031a0:	4313      	orrs	r3, r2
 80031a2:	810b      	strh	r3, [r1, #8]
 80031a4:	f7ff fe8e 	bl	0x8002ec4
 80031a8:	2800      	cmp	r0, #0
 80031aa:	d1a7      	bne.n	0x80030fc
 80031ac:	e7e2      	b.n	0x8003174
 80031ae:	4932      	ldr	r1, [pc, #200]	; (0x8003278)
 80031b0:	f24c 3050 	movw	r0, #50000	; 0xc350
 80031b4:	894a      	ldrh	r2, [r1, #10]
 80031b6:	b292      	uxth	r2, r2
 80031b8:	4313      	orrs	r3, r2
 80031ba:	814b      	strh	r3, [r1, #10]
 80031bc:	f7ff fe82 	bl	0x8002ec4
 80031c0:	2800      	cmp	r0, #0
 80031c2:	d0db      	beq.n	0x800317c
 80031c4:	e79a      	b.n	0x80030fc
 80031c6:	492c      	ldr	r1, [pc, #176]	; (0x8003278)
 80031c8:	f24c 3050 	movw	r0, #50000	; 0xc350
 80031cc:	898a      	ldrh	r2, [r1, #12]
 80031ce:	b292      	uxth	r2, r2
 80031d0:	4313      	orrs	r3, r2
 80031d2:	818b      	strh	r3, [r1, #12]
 80031d4:	f7ff fe76 	bl	0x8002ec4
 80031d8:	2800      	cmp	r0, #0
 80031da:	d0d3      	beq.n	0x8003184
 80031dc:	e78e      	b.n	0x80030fc
 80031de:	6833      	ldr	r3, [r6, #0]
 80031e0:	0799      	lsls	r1, r3, #30
 80031e2:	d504      	bpl.n	0x80031ee
 80031e4:	7c30      	ldrb	r0, [r6, #16]
 80031e6:	f7ff feef 	bl	0x8002fc8
 80031ea:	2800      	cmp	r0, #0
 80031ec:	d18d      	bne.n	0x800310a
 80031ee:	6833      	ldr	r3, [r6, #0]
 80031f0:	075a      	lsls	r2, r3, #29
 80031f2:	d51b      	bpl.n	0x800322c
 80031f4:	f24c 3050 	movw	r0, #50000	; 0xc350
 80031f8:	7c77      	ldrb	r7, [r6, #17]
 80031fa:	f7ff fe63 	bl	0x8002ec4
 80031fe:	2800      	cmp	r0, #0
 8003200:	d183      	bne.n	0x800310a
 8003202:	4c1c      	ldr	r4, [pc, #112]	; (0x8003274)
 8003204:	61e8      	str	r0, [r5, #28]
 8003206:	6923      	ldr	r3, [r4, #16]
 8003208:	f047 0788 	orr.w	r7, r7, #136	; 0x88
 800320c:	f043 0310 	orr.w	r3, r3, #16
 8003210:	6123      	str	r3, [r4, #16]
 8003212:	4b19      	ldr	r3, [pc, #100]	; (0x8003278)
 8003214:	f24c 3050 	movw	r0, #50000	; 0xc350
 8003218:	805f      	strh	r7, [r3, #2]
 800321a:	f7ff fe53 	bl	0x8002ec4
 800321e:	6923      	ldr	r3, [r4, #16]
 8003220:	f023 0310 	bic.w	r3, r3, #16
 8003224:	6123      	str	r3, [r4, #16]
 8003226:	2800      	cmp	r0, #0
 8003228:	f47f af6f 	bne.w	0x800310a
 800322c:	6833      	ldr	r3, [r6, #0]
 800322e:	071b      	lsls	r3, r3, #28
 8003230:	f57f af6b 	bpl.w	0x800310a
 8003234:	f24c 3050 	movw	r0, #50000	; 0xc350
 8003238:	6977      	ldr	r7, [r6, #20]
 800323a:	7e36      	ldrb	r6, [r6, #24]
 800323c:	f7ff fe42 	bl	0x8002ec4
 8003240:	2800      	cmp	r0, #0
 8003242:	f47f af62 	bne.w	0x800310a
 8003246:	4c0b      	ldr	r4, [pc, #44]	; (0x8003274)
 8003248:	61e8      	str	r0, [r5, #28]
 800324a:	6923      	ldr	r3, [r4, #16]
 800324c:	b2b6      	uxth	r6, r6
 800324e:	f043 0310 	orr.w	r3, r3, #16
 8003252:	6123      	str	r3, [r4, #16]
 8003254:	f24c 3050 	movw	r0, #50000	; 0xc350
 8003258:	803e      	strh	r6, [r7, #0]
 800325a:	f7ff fe33 	bl	0x8002ec4
 800325e:	6923      	ldr	r3, [r4, #16]
 8003260:	f023 0310 	bic.w	r3, r3, #16
 8003264:	6123      	str	r3, [r4, #16]
 8003266:	e750      	b.n	0x800310a
 8003268:	2002      	movs	r0, #2
 800326a:	e8bd 81f0 	ldmia.w	sp!, {r4, r5, r6, r7, r8, pc}
 800326e:	bf00      	nop
 8003270:	1530      	asrs	r0, r6, #20
 8003272:	2000      	movs	r0, #0
 8003274:	2000      	movs	r0, #0
 8003276:	4002      	ands	r2, r0
 8003278:	f800 1fff 	strb.w	r1, [r0, #255]!
 800327c:	2307      	movs	r3, #7
 800327e:	6003      	str	r3, [r0, #0]
 8003280:	4b0a      	ldr	r3, [pc, #40]	; (0x80032ac)
 8003282:	6a1a      	ldr	r2, [r3, #32]
 8003284:	6082      	str	r2, [r0, #8]
 8003286:	69da      	ldr	r2, [r3, #28]
 8003288:	f012 0f02 	tst.w	r2, #2
 800328c:	bf14      	ite	ne
 800328e:	2200      	movne	r2, #0
 8003290:	22a5      	moveq	r2, #165	; 0xa5
 8003292:	7402      	strb	r2, [r0, #16]
 8003294:	69db      	ldr	r3, [r3, #28]
 8003296:	2204      	movs	r2, #4
 8003298:	fa92 f2a2 	rbit	r2, r2
 800329c:	fab2 f282 	clz	r2, r2
 80032a0:	f003 031c 	and.w	r3, r3, #28
 80032a4:	40d3      	lsrs	r3, r2
 80032a6:	7443      	strb	r3, [r0, #17]
 80032a8:	4770      	bx	lr
 80032aa:	bf00      	nop
 80032ac:	2000      	movs	r0, #0
 80032ae:	4002      	ands	r2, r0
 80032b0:	4b0b      	ldr	r3, [pc, #44]	; (0x80032e0)
 80032b2:	4298      	cmp	r0, r3
 80032b4:	4b0b      	ldr	r3, [pc, #44]	; (0x80032e4)
 80032b6:	69d8      	ldr	r0, [r3, #28]
 80032b8:	d109      	bne.n	0x80032ce
 80032ba:	f44f 337f 	mov.w	r3, #261120	; 0x3fc00
 80032be:	fa93 f3a3 	rbit	r3, r3
 80032c2:	fab3 f383 	clz	r3, r3
 80032c6:	f400 307f 	and.w	r0, r0, #261120	; 0x3fc00
 80032ca:	40d8      	lsrs	r0, r3
 80032cc:	4770      	bx	lr
 80032ce:	f04f 737f 	mov.w	r3, #66846720	; 0x3fc0000
 80032d2:	fa93 f3a3 	rbit	r3, r3
 80032d6:	fab3 f383 	clz	r3, r3
 80032da:	f000 707f 	and.w	r0, r0, #66846720	; 0x3fc0000
 80032de:	e7f4      	b.n	0x80032ca
 80032e0:	f804 1fff 	strb.w	r1, [r4, #255]!
 80032e4:	2000      	movs	r0, #0
 80032e6:	4002      	ands	r2, r0
 80032e8:	2200      	movs	r2, #0
 80032ea:	4b06      	ldr	r3, [pc, #24]	; (0x8003304)
 80032ec:	61da      	str	r2, [r3, #28]
 80032ee:	4b06      	ldr	r3, [pc, #24]	; (0x8003308)
 80032f0:	691a      	ldr	r2, [r3, #16]
 80032f2:	f042 0202 	orr.w	r2, r2, #2
 80032f6:	611a      	str	r2, [r3, #16]
 80032f8:	6158      	str	r0, [r3, #20]
 80032fa:	691a      	ldr	r2, [r3, #16]
 80032fc:	f042 0240 	orr.w	r2, r2, #64	; 0x40
 8003300:	611a      	str	r2, [r3, #16]
 8003302:	4770      	bx	lr
 8003304:	1530      	asrs	r0, r6, #20
 8003306:	2000      	movs	r0, #0
 8003308:	2000      	movs	r0, #0
 800330a:	4002      	ands	r2, r0
 800330c:	e92d 41f0 	stmdb	sp!, {r4, r5, r6, r7, r8, lr}
 8003310:	4d23      	ldr	r5, [pc, #140]	; (0x80033a0)
 8003312:	4607      	mov	r7, r0
 8003314:	7e2b      	ldrb	r3, [r5, #24]
 8003316:	4688      	mov	r8, r1
 8003318:	2b01      	cmp	r3, #1
 800331a:	d03d      	beq.n	0x8003398
 800331c:	2401      	movs	r4, #1
 800331e:	6803      	ldr	r3, [r0, #0]
 8003320:	762c      	strb	r4, [r5, #24]
 8003322:	2b02      	cmp	r3, #2
 8003324:	f24c 3050 	movw	r0, #50000	; 0xc350
 8003328:	d113      	bne.n	0x8003352
 800332a:	f7ff fdcb 	bl	0x8002ec4
 800332e:	b120      	cbz	r0, 0x800333a
 8003330:	2001      	movs	r0, #1
 8003332:	2300      	movs	r3, #0
 8003334:	762b      	strb	r3, [r5, #24]
 8003336:	e8bd 81f0 	ldmia.w	sp!, {r4, r5, r6, r7, r8, pc}
 800333a:	f7ff fe33 	bl	0x8002fa4
 800333e:	f24c 3050 	movw	r0, #50000	; 0xc350
 8003342:	f7ff fdbf 	bl	0x8002ec4
 8003346:	4a17      	ldr	r2, [pc, #92]	; (0x80033a4)
 8003348:	6913      	ldr	r3, [r2, #16]
 800334a:	f023 0304 	bic.w	r3, r3, #4
 800334e:	6113      	str	r3, [r2, #16]
 8003350:	e7ef      	b.n	0x8003332
 8003352:	f7ff fdb7 	bl	0x8002ec4
 8003356:	2800      	cmp	r0, #0
 8003358:	d1ea      	bne.n	0x8003330
 800335a:	f04f 33ff 	mov.w	r3, #4294967295	; 0xffffffff
 800335e:	f8c8 3000 	str.w	r3, [r8]
 8003362:	4620      	mov	r0, r4
 8003364:	68be      	ldr	r6, [r7, #8]
 8003366:	4c0f      	ldr	r4, [pc, #60]	; (0x80033a4)
 8003368:	68fa      	ldr	r2, [r7, #12]
 800336a:	68bb      	ldr	r3, [r7, #8]
 800336c:	eb03 2382 	add.w	r3, r3, r2, lsl #10
 8003370:	429e      	cmp	r6, r3
 8003372:	d2de      	bcs.n	0x8003332
 8003374:	4630      	mov	r0, r6
 8003376:	f7ff ffb7 	bl	0x80032e8
 800337a:	f24c 3050 	movw	r0, #50000	; 0xc350
 800337e:	f7ff fda1 	bl	0x8002ec4
 8003382:	6923      	ldr	r3, [r4, #16]
 8003384:	f023 0302 	bic.w	r3, r3, #2
 8003388:	6123      	str	r3, [r4, #16]
 800338a:	b110      	cbz	r0, 0x8003392
 800338c:	f8c8 6000 	str.w	r6, [r8]
 8003390:	e7cf      	b.n	0x8003332
 8003392:	f506 6680 	add.w	r6, r6, #1024	; 0x400
 8003396:	e7e7      	b.n	0x8003368
 8003398:	2002      	movs	r0, #2
 800339a:	e8bd 81f0 	ldmia.w	sp!, {r4, r5, r6, r7, r8, pc}
 800339e:	bf00      	nop
 80033a0:	1530      	asrs	r0, r6, #20
 80033a2:	2000      	movs	r0, #0
 80033a4:	2000      	movs	r0, #0
 80033a6:	4002      	ands	r2, r0
 80033a8:	4a11      	ldr	r2, [pc, #68]	; (0x80033f0)
 80033aa:	b538      	push	{r3, r4, r5, lr}
 80033ac:	7e13      	ldrb	r3, [r2, #24]
 80033ae:	2b01      	cmp	r3, #1
 80033b0:	d01a      	beq.n	0x80033e8
 80033b2:	2301      	movs	r3, #1
 80033b4:	7811      	ldrb	r1, [r2, #0]
 80033b6:	7613      	strb	r3, [r2, #24]
 80033b8:	f001 04ff 	and.w	r4, r1, #255	; 0xff
 80033bc:	b9b1      	cbnz	r1, 0x80033ec
 80033be:	4d0d      	ldr	r5, [pc, #52]	; (0x80033f4)
 80033c0:	6929      	ldr	r1, [r5, #16]
 80033c2:	f441 51a0 	orr.w	r1, r1, #5120	; 0x1400
 80033c6:	6129      	str	r1, [r5, #16]
 80033c8:	6801      	ldr	r1, [r0, #0]
 80033ca:	2902      	cmp	r1, #2
 80033cc:	d104      	bne.n	0x80033d8
 80033ce:	7011      	strb	r1, [r2, #0]
 80033d0:	f7ff fde8 	bl	0x8002fa4
 80033d4:	4620      	mov	r0, r4
 80033d6:	bd38      	pop	{r3, r4, r5, pc}
 80033d8:	7013      	strb	r3, [r2, #0]
 80033da:	68c3      	ldr	r3, [r0, #12]
 80033dc:	6880      	ldr	r0, [r0, #8]
 80033de:	6053      	str	r3, [r2, #4]
 80033e0:	6090      	str	r0, [r2, #8]
 80033e2:	f7ff ff81 	bl	0x80032e8
 80033e6:	e7f5      	b.n	0x80033d4
 80033e8:	2002      	movs	r0, #2
 80033ea:	bd38      	pop	{r3, r4, r5, pc}
 80033ec:	4618      	mov	r0, r3
 80033ee:	bd38      	pop	{r3, r4, r5, pc}
 80033f0:	1530      	asrs	r0, r6, #20
 80033f2:	2000      	movs	r0, #0
 80033f4:	2000      	movs	r0, #0
 80033f6:	4002      	ands	r2, r0
 80033f8:	e92d 4ff7 	stmdb	sp!, {r0, r1, r2, r4, r5, r6, r7, r8, r9, sl, fp, lr}
 80033fc:	2200      	movs	r2, #0
 80033fe:	4616      	mov	r6, r2
 8003400:	4b65      	ldr	r3, [pc, #404]	; (0x8003598)
 8003402:	f8df e1a4 	ldr.w	lr, [pc, #420]	; 0x80035a8
 8003406:	f8df c1a4 	ldr.w	ip, [pc, #420]	; 0x80035ac
 800340a:	f04f 0801 	mov.w	r8, #1
 800340e:	680c      	ldr	r4, [r1, #0]
 8003410:	fa08 f806 	lsl.w	r8, r8, r6
 8003414:	ea08 0404 	and.w	r4, r8, r4
 8003418:	45a0      	cmp	r8, r4
 800341a:	d17f      	bne.n	0x800351c
 800341c:	684d      	ldr	r5, [r1, #4]
 800341e:	2d12      	cmp	r5, #18
 8003420:	f000 80af 	beq.w	0x8003582
 8003424:	f200 8088 	bhi.w	0x8003538
 8003428:	2d02      	cmp	r5, #2
 800342a:	f000 80a7 	beq.w	0x800357c
 800342e:	d87c      	bhi.n	0x800352a
 8003430:	2d00      	cmp	r5, #0
 8003432:	f000 808e 	beq.w	0x8003552
 8003436:	2d01      	cmp	r5, #1
 8003438:	f000 809e 	beq.w	0x8003578
 800343c:	f04f 090f 	mov.w	r9, #15
 8003440:	2cff      	cmp	r4, #255	; 0xff
 8003442:	bf93      	iteet	ls
 8003444:	4682      	movls	sl, r0
 8003446:	f106 4580 	addhi.w	r5, r6, #1073741824	; 0x40000000
 800344a:	3d08      	subhi	r5, #8
 800344c:	f8d0 b000 	ldrls.w	fp, [r0]
 8003450:	bf92      	itee	ls
 8003452:	00b5      	lslls	r5, r6, #2
 8003454:	f8d0 b004 	ldrhi.w	fp, [r0, #4]
 8003458:	00ad      	lslhi	r5, r5, #2
 800345a:	fa09 f805 	lsl.w	r8, r9, r5
 800345e:	ea2b 0808 	bic.w	r8, fp, r8
 8003462:	fa02 f505 	lsl.w	r5, r2, r5
 8003466:	bf88      	it	hi
 8003468:	f100 0a04 	addhi.w	sl, r0, #4
 800346c:	ea48 0505 	orr.w	r5, r8, r5
 8003470:	f8ca 5000 	str.w	r5, [sl]
 8003474:	f8d1 a004 	ldr.w	sl, [r1, #4]
 8003478:	f01a 5f80 	tst.w	sl, #268435456	; 0x10000000
 800347c:	d04e      	beq.n	0x800351c
 800347e:	4d47      	ldr	r5, [pc, #284]	; (0x800359c)
 8003480:	4f46      	ldr	r7, [pc, #280]	; (0x800359c)
 8003482:	69ad      	ldr	r5, [r5, #24]
 8003484:	f026 0803 	bic.w	r8, r6, #3
 8003488:	f045 0501 	orr.w	r5, r5, #1
 800348c:	61bd      	str	r5, [r7, #24]
 800348e:	69bd      	ldr	r5, [r7, #24]
 8003490:	f108 4880 	add.w	r8, r8, #1073741824	; 0x40000000
 8003494:	f005 0501 	and.w	r5, r5, #1
 8003498:	9501      	str	r5, [sp, #4]
 800349a:	f508 3880 	add.w	r8, r8, #65536	; 0x10000
 800349e:	f006 0b03 	and.w	fp, r6, #3
 80034a2:	9d01      	ldr	r5, [sp, #4]
 80034a4:	ea4f 0b8b 	mov.w	fp, fp, lsl #2
 80034a8:	f8d8 5008 	ldr.w	r5, [r8, #8]
 80034ac:	fa09 f90b 	lsl.w	r9, r9, fp
 80034b0:	ea25 0909 	bic.w	r9, r5, r9
 80034b4:	4d3a      	ldr	r5, [pc, #232]	; (0x80035a0)
 80034b6:	42a8      	cmp	r0, r5
 80034b8:	d068      	beq.n	0x800358c
 80034ba:	f505 6580 	add.w	r5, r5, #1024	; 0x400
 80034be:	42a8      	cmp	r0, r5
 80034c0:	d066      	beq.n	0x8003590
 80034c2:	f505 6580 	add.w	r5, r5, #1024	; 0x400
 80034c6:	42a8      	cmp	r0, r5
 80034c8:	d064      	beq.n	0x8003594
 80034ca:	f505 6580 	add.w	r5, r5, #1024	; 0x400
 80034ce:	42a8      	cmp	r0, r5
 80034d0:	bf0c      	ite	eq
 80034d2:	2503      	moveq	r5, #3
 80034d4:	2504      	movne	r5, #4
 80034d6:	fa05 f50b 	lsl.w	r5, r5, fp
 80034da:	ea45 0509 	orr.w	r5, r5, r9
 80034de:	f8c8 5008 	str.w	r5, [r8, #8]
 80034e2:	681d      	ldr	r5, [r3, #0]
 80034e4:	f41a 3f80 	tst.w	sl, #65536	; 0x10000
 80034e8:	bf14      	ite	ne
 80034ea:	4325      	orrne	r5, r4
 80034ec:	43a5      	biceq	r5, r4
 80034ee:	601d      	str	r5, [r3, #0]
 80034f0:	685d      	ldr	r5, [r3, #4]
 80034f2:	f41a 3f00 	tst.w	sl, #131072	; 0x20000
 80034f6:	bf14      	ite	ne
 80034f8:	4325      	orrne	r5, r4
 80034fa:	43a5      	biceq	r5, r4
 80034fc:	605d      	str	r5, [r3, #4]
 80034fe:	689d      	ldr	r5, [r3, #8]
 8003500:	f41a 1f80 	tst.w	sl, #1048576	; 0x100000
 8003504:	bf14      	ite	ne
 8003506:	4325      	orrne	r5, r4
 8003508:	43a5      	biceq	r5, r4
 800350a:	609d      	str	r5, [r3, #8]
 800350c:	68dd      	ldr	r5, [r3, #12]
 800350e:	f41a 1f00 	tst.w	sl, #2097152	; 0x200000
 8003512:	bf14      	ite	ne
 8003514:	432c      	orrne	r4, r5
 8003516:	ea25 0404 	biceq.w	r4, r5, r4
 800351a:	60dc      	str	r4, [r3, #12]
 800351c:	3601      	adds	r6, #1
 800351e:	2e10      	cmp	r6, #16
 8003520:	f47f af73 	bne.w	0x800340a
 8003524:	b003      	add	sp, #12
 8003526:	e8bd 8ff0 	ldmia.w	sp!, {r4, r5, r6, r7, r8, r9, sl, fp, pc}
 800352a:	2d03      	cmp	r5, #3
 800352c:	d022      	beq.n	0x8003574
 800352e:	2d11      	cmp	r5, #17
 8003530:	d184      	bne.n	0x800343c
 8003532:	68ca      	ldr	r2, [r1, #12]
 8003534:	3204      	adds	r2, #4
 8003536:	e781      	b.n	0x800343c
 8003538:	4f1a      	ldr	r7, [pc, #104]	; (0x80035a4)
 800353a:	42bd      	cmp	r5, r7
 800353c:	d009      	beq.n	0x8003552
 800353e:	d812      	bhi.n	0x8003566
 8003540:	f8df 906c 	ldr.w	r9, [pc, #108]	; 0x80035b0
 8003544:	454d      	cmp	r5, r9
 8003546:	d004      	beq.n	0x8003552
 8003548:	f509 3980 	add.w	r9, r9, #65536	; 0x10000
 800354c:	454d      	cmp	r5, r9
 800354e:	f47f af75 	bne.w	0x800343c
 8003552:	688a      	ldr	r2, [r1, #8]
 8003554:	b1c2      	cbz	r2, 0x8003588
 8003556:	2a01      	cmp	r2, #1
 8003558:	bf0c      	ite	eq
 800355a:	f8c0 8010 	streq.w	r8, [r0, #16]
 800355e:	f8c0 8014 	strne.w	r8, [r0, #20]
 8003562:	2208      	movs	r2, #8
 8003564:	e76a      	b.n	0x800343c
 8003566:	4575      	cmp	r5, lr
 8003568:	d0f3      	beq.n	0x8003552
 800356a:	4565      	cmp	r5, ip
 800356c:	d0f1      	beq.n	0x8003552
 800356e:	f8df 9044 	ldr.w	r9, [pc, #68]	; 0x80035b4
 8003572:	e7eb      	b.n	0x800354c
 8003574:	2200      	movs	r2, #0
 8003576:	e761      	b.n	0x800343c
 8003578:	68ca      	ldr	r2, [r1, #12]
 800357a:	e75f      	b.n	0x800343c
 800357c:	68ca      	ldr	r2, [r1, #12]
 800357e:	3208      	adds	r2, #8
 8003580:	e75c      	b.n	0x800343c
 8003582:	68ca      	ldr	r2, [r1, #12]
 8003584:	320c      	adds	r2, #12
 8003586:	e759      	b.n	0x800343c
 8003588:	2204      	movs	r2, #4
 800358a:	e757      	b.n	0x800343c
 800358c:	2500      	movs	r5, #0
 800358e:	e7a2      	b.n	0x80034d6
 8003590:	2501      	movs	r5, #1
 8003592:	e7a0      	b.n	0x80034d6
 8003594:	2502      	movs	r5, #2
 8003596:	e79e      	b.n	0x80034d6
 8003598:	0400      	lsls	r0, r0, #16
 800359a:	4001      	ands	r1, r0
 800359c:	1000      	asrs	r0, r0, #32
 800359e:	4002      	ands	r2, r0
 80035a0:	0800      	lsrs	r0, r0, #32
 80035a2:	4001      	ands	r1, r0
 80035a4:	0000      	movs	r0, r0
 80035a6:	1021      	asrs	r1, r4, #32
 80035a8:	0000      	movs	r0, r0
 80035aa:	1031      	asrs	r1, r6, #32
 80035ac:	0000      	movs	r0, r0
 80035ae:	1032      	asrs	r2, r6, #32
 80035b0:	0000      	movs	r0, r0
 80035b2:	1011      	asrs	r1, r2, #32
 80035b4:	0000      	movs	r0, r0
 80035b6:	1022      	asrs	r2, r4, #32
 80035b8:	e92d 4ff0 	stmdb	sp!, {r4, r5, r6, r7, r8, r9, sl, fp, lr}
 80035bc:	2200      	movs	r2, #0
 80035be:	f04f 0901 	mov.w	r9, #1
 80035c2:	f04f 0c0f 	mov.w	ip, #15
 80035c6:	f04f 0a04 	mov.w	sl, #4
 80035ca:	4c30      	ldr	r4, [pc, #192]	; (0x800368c)
 80035cc:	f8df b0c4 	ldr.w	fp, [pc, #196]	; 0x8003694
 80035d0:	fa31 f302 	lsrs.w	r3, r1, r2
 80035d4:	d101      	bne.n	0x80035da
 80035d6:	e8bd 8ff0 	ldmia.w	sp!, {r4, r5, r6, r7, r8, r9, sl, fp, pc}
 80035da:	fa09 f302 	lsl.w	r3, r9, r2
 80035de:	400b      	ands	r3, r1
 80035e0:	d04c      	beq.n	0x800367c
 80035e2:	2bff      	cmp	r3, #255	; 0xff
 80035e4:	bf98      	it	ls
 80035e6:	4607      	movls	r7, r0
 80035e8:	ea6f 0303 	mvn.w	r3, r3
 80035ec:	bf85      	ittet	hi
 80035ee:	f102 4580 	addhi.w	r5, r2, #1073741824	; 0x40000000
 80035f2:	3d08      	subhi	r5, #8
 80035f4:	f8d0 e000 	ldrls.w	lr, [r0]
 80035f8:	f8d0 e004 	ldrhi.w	lr, [r0, #4]
 80035fc:	bf94      	ite	ls
 80035fe:	0095      	lslls	r5, r2, #2
 8003600:	00ad      	lslhi	r5, r5, #2
 8003602:	fa0c f605 	lsl.w	r6, ip, r5
 8003606:	ea2e 0606 	bic.w	r6, lr, r6
 800360a:	fa0a f505 	lsl.w	r5, sl, r5
 800360e:	bf88      	it	hi
 8003610:	1d07      	addhi	r7, r0, #4
 8003612:	432e      	orrs	r6, r5
 8003614:	603e      	str	r6, [r7, #0]
 8003616:	68c5      	ldr	r5, [r0, #12]
 8003618:	f002 0703 	and.w	r7, r2, #3
 800361c:	401d      	ands	r5, r3
 800361e:	60c5      	str	r5, [r0, #12]
 8003620:	f022 0503 	bic.w	r5, r2, #3
 8003624:	f105 4580 	add.w	r5, r5, #1073741824	; 0x40000000
 8003628:	f505 3580 	add.w	r5, r5, #65536	; 0x10000
 800362c:	68ae      	ldr	r6, [r5, #8]
 800362e:	00bf      	lsls	r7, r7, #2
 8003630:	fa0c f807 	lsl.w	r8, ip, r7
 8003634:	ea06 0e08 	and.w	lr, r6, r8
 8003638:	4e15      	ldr	r6, [pc, #84]	; (0x8003690)
 800363a:	42b0      	cmp	r0, r6
 800363c:	d020      	beq.n	0x8003680
 800363e:	f506 6680 	add.w	r6, r6, #1024	; 0x400
 8003642:	42b0      	cmp	r0, r6
 8003644:	d01e      	beq.n	0x8003684
 8003646:	f506 6680 	add.w	r6, r6, #1024	; 0x400
 800364a:	42b0      	cmp	r0, r6
 800364c:	d01c      	beq.n	0x8003688
 800364e:	4558      	cmp	r0, fp
 8003650:	bf0c      	ite	eq
 8003652:	2603      	moveq	r6, #3
 8003654:	2604      	movne	r6, #4
 8003656:	40be      	lsls	r6, r7
 8003658:	45b6      	cmp	lr, r6
 800365a:	d10f      	bne.n	0x800367c
 800365c:	68ae      	ldr	r6, [r5, #8]
 800365e:	ea26 0608 	bic.w	r6, r6, r8
 8003662:	60ae      	str	r6, [r5, #8]
 8003664:	6825      	ldr	r5, [r4, #0]
 8003666:	401d      	ands	r5, r3
 8003668:	6025      	str	r5, [r4, #0]
 800366a:	6865      	ldr	r5, [r4, #4]
 800366c:	401d      	ands	r5, r3
 800366e:	6065      	str	r5, [r4, #4]
 8003670:	68a5      	ldr	r5, [r4, #8]
 8003672:	401d      	ands	r5, r3
 8003674:	60a5      	str	r5, [r4, #8]
 8003676:	68e5      	ldr	r5, [r4, #12]
 8003678:	402b      	ands	r3, r5
 800367a:	60e3      	str	r3, [r4, #12]
 800367c:	3201      	adds	r2, #1
 800367e:	e7a7      	b.n	0x80035d0
 8003680:	2600      	movs	r6, #0
 8003682:	e7e8      	b.n	0x8003656
 8003684:	2601      	movs	r6, #1
 8003686:	e7e6      	b.n	0x8003656
 8003688:	2602      	movs	r6, #2
 800368a:	e7e4      	b.n	0x8003656
 800368c:	0400      	lsls	r0, r0, #16
 800368e:	4001      	ands	r1, r0
 8003690:	0800      	lsrs	r0, r0, #32
 8003692:	4001      	ands	r1, r0
 8003694:	1400      	asrs	r0, r0, #16
 8003696:	4001      	ands	r1, r0
 8003698:	6883      	ldr	r3, [r0, #8]
 800369a:	4219      	tst	r1, r3
 800369c:	bf14      	ite	ne
 800369e:	2001      	movne	r0, #1
 80036a0:	2000      	moveq	r0, #0
 80036a2:	4770      	bx	lr
 80036a4:	b10a      	cbz	r2, 0x80036aa
 80036a6:	6101      	str	r1, [r0, #16]
 80036a8:	4770      	bx	lr
 80036aa:	0409      	lsls	r1, r1, #16
 80036ac:	e7fb      	b.n	0x80036a6
 80036ae:	68c3      	ldr	r3, [r0, #12]
 80036b0:	4059      	eors	r1, r3
 80036b2:	60c1      	str	r1, [r0, #12]
 80036b4:	4770      	bx	lr
 80036b6:	f44f 3380 	mov.w	r3, #65536	; 0x10000
 80036ba:	b082      	sub	sp, #8
 80036bc:	9301      	str	r3, [sp, #4]
 80036be:	9b01      	ldr	r3, [sp, #4]
 80036c0:	430b      	orrs	r3, r1
 80036c2:	9301      	str	r3, [sp, #4]
 80036c4:	9b01      	ldr	r3, [sp, #4]
 80036c6:	6183      	str	r3, [r0, #24]
 80036c8:	6181      	str	r1, [r0, #24]
 80036ca:	9b01      	ldr	r3, [sp, #4]
 80036cc:	6183      	str	r3, [r0, #24]
 80036ce:	6983      	ldr	r3, [r0, #24]
 80036d0:	9301      	str	r3, [sp, #4]
 80036d2:	6980      	ldr	r0, [r0, #24]
 80036d4:	f480 3080 	eor.w	r0, r0, #65536	; 0x10000
 80036d8:	f3c0 4000 	ubfx	r0, r0, #16, #1
 80036dc:	b002      	add	sp, #8
 80036de:	4770      	bx	lr
 80036e0:	4770      	bx	lr
 80036e2:	0000      	movs	r0, r0
 80036e4:	b508      	push	{r3, lr}
 80036e6:	4b04      	ldr	r3, [pc, #16]	; (0x80036f8)
 80036e8:	6959      	ldr	r1, [r3, #20]
 80036ea:	4201      	tst	r1, r0
 80036ec:	d002      	beq.n	0x80036f4
 80036ee:	6158      	str	r0, [r3, #20]
 80036f0:	f7ff fff6 	bl	0x80036e0
 80036f4:	bd08      	pop	{r3, pc}
 80036f6:	bf00      	nop
 80036f8:	0400      	lsls	r0, r0, #16
 80036fa:	4001      	ands	r1, r0
 80036fc:	4a03      	ldr	r2, [pc, #12]	; (0x800370c)
 80036fe:	6813      	ldr	r3, [r2, #0]
 8003700:	f023 037f 	bic.w	r3, r3, #127	; 0x7f
 8003704:	4319      	orrs	r1, r3
 8003706:	4301      	orrs	r1, r0
 8003708:	6011      	str	r1, [r2, #0]
 800370a:	4770      	bx	lr
 800370c:	0000      	movs	r0, r0
 800370e:	4001      	ands	r1, r0
 8003710:	4a02      	ldr	r2, [pc, #8]	; (0x800371c)
 8003712:	6813      	ldr	r3, [r2, #0]
 8003714:	f043 0380 	orr.w	r3, r3, #128	; 0x80
 8003718:	6013      	str	r3, [r2, #0]
 800371a:	4770      	bx	lr
 800371c:	0000      	movs	r0, r0
 800371e:	4001      	ands	r1, r0
 8003720:	4a02      	ldr	r2, [pc, #8]	; (0x800372c)
 8003722:	6813      	ldr	r3, [r2, #0]
 8003724:	f023 0380 	bic.w	r3, r3, #128	; 0x80
 8003728:	6013      	str	r3, [r2, #0]
 800372a:	4770      	bx	lr
 800372c:	0000      	movs	r0, r0
 800372e:	4001      	ands	r1, r0
 8003730:	4770      	bx	lr
 8003732:	4770      	bx	lr
 8003734:	4770      	bx	lr
 8003736:	4770      	bx	lr
 8003738:	4770      	bx	lr
 800373a:	e92d 41f0 	stmdb	sp!, {r4, r5, r6, r7, r8, lr}
 800373e:	4604      	mov	r4, r0
 8003740:	b086      	sub	sp, #24
 8003742:	2800      	cmp	r0, #0
 8003744:	d060      	beq.n	0x8003808
 8003746:	f890 33e9 	ldrb.w	r3, [r0, #1001]	; 0x3e9
 800374a:	f003 02ff 	and.w	r2, r3, #255	; 0xff
 800374e:	b91b      	cbnz	r3, 0x8003758
 8003750:	f880 23e8 	strb.w	r2, [r0, #1000]	; 0x3e8
 8003754:	f7ff fff0 	bl	0x8003738
 8003758:	4625      	mov	r5, r4
 800375a:	2303      	movs	r3, #3
 800375c:	466e      	mov	r6, sp
 800375e:	f855 0b10 	ldr.w	r0, [r5], #16
 8003762:	f884 33e9 	strb.w	r3, [r4, #1001]	; 0x3e9
 8003766:	f002 f849 	bl	0x80057fc
 800376a:	cd0f      	ldmia	r5!, {r0, r1, r2, r3}
 800376c:	c60f      	stmia	r6!, {r0, r1, r2, r3}
 800376e:	682b      	ldr	r3, [r5, #0]
 8003770:	f104 0804 	add.w	r8, r4, #4
 8003774:	6033      	str	r3, [r6, #0]
 8003776:	e898 000e 	ldmia.w	r8, {r1, r2, r3}
 800377a:	6820      	ldr	r0, [r4, #0]
 800377c:	f002 f82e 	bl	0x80057dc
 8003780:	2100      	movs	r1, #0
 8003782:	6820      	ldr	r0, [r4, #0]
 8003784:	f002 f844 	bl	0x8005810
 8003788:	2100      	movs	r1, #0
 800378a:	4623      	mov	r3, r4
 800378c:	4622      	mov	r2, r4
 800378e:	2601      	movs	r6, #1
 8003790:	4608      	mov	r0, r1
 8003792:	f104 0510 	add.w	r5, r4, #16
 8003796:	f882 1028 	strb.w	r1, [r2, #40]	; 0x28
 800379a:	8691      	strh	r1, [r2, #52]	; 0x34
 800379c:	3101      	adds	r1, #1
 800379e:	290f      	cmp	r1, #15
 80037a0:	f882 6029 	strb.w	r6, [r2, #41]	; 0x29
 80037a4:	f882 002b 	strb.w	r0, [r2, #43]	; 0x2b
 80037a8:	6390      	str	r0, [r2, #56]	; 0x38
 80037aa:	63d0      	str	r0, [r2, #60]	; 0x3c
 80037ac:	6410      	str	r0, [r2, #64]	; 0x40
 80037ae:	f102 0220 	add.w	r2, r2, #32
 80037b2:	d1f0      	bne.n	0x8003796
 80037b4:	2200      	movs	r2, #0
 80037b6:	4617      	mov	r7, r2
 80037b8:	f883 2208 	strb.w	r2, [r3, #520]	; 0x208
 80037bc:	869a      	strh	r2, [r3, #52]	; 0x34
 80037be:	3201      	adds	r2, #1
 80037c0:	2a0f      	cmp	r2, #15
 80037c2:	f883 7209 	strb.w	r7, [r3, #521]	; 0x209
 80037c6:	f883 720b 	strb.w	r7, [r3, #523]	; 0x20b
 80037ca:	f8c3 7218 	str.w	r7, [r3, #536]	; 0x218
 80037ce:	f8c3 721c 	str.w	r7, [r3, #540]	; 0x21c
 80037d2:	f8c3 7220 	str.w	r7, [r3, #544]	; 0x220
 80037d6:	f103 0320 	add.w	r3, r3, #32
 80037da:	d1ed      	bne.n	0x80037b8
 80037dc:	466e      	mov	r6, sp
 80037de:	cd0f      	ldmia	r5!, {r0, r1, r2, r3}
 80037e0:	c60f      	stmia	r6!, {r0, r1, r2, r3}
 80037e2:	682b      	ldr	r3, [r5, #0]
 80037e4:	6033      	str	r3, [r6, #0]
 80037e6:	e898 000e 	ldmia.w	r8, {r1, r2, r3}
 80037ea:	6820      	ldr	r0, [r4, #0]
 80037ec:	f002 f812 	bl	0x8005814
 80037f0:	2301      	movs	r3, #1
 80037f2:	f884 7024 	strb.w	r7, [r4, #36]	; 0x24
 80037f6:	6820      	ldr	r0, [r4, #0]
 80037f8:	f884 33e9 	strb.w	r3, [r4, #1001]	; 0x3e9
 80037fc:	f002 faef 	bl	0x8005dde
 8003800:	2000      	movs	r0, #0
 8003802:	b006      	add	sp, #24
 8003804:	e8bd 81f0 	ldmia.w	sp!, {r4, r5, r6, r7, r8, pc}
 8003808:	2001      	movs	r0, #1
 800380a:	e7fa      	b.n	0x8003802
 800380c:	4770      	bx	lr
 800380e:	f890 33e8 	ldrb.w	r3, [r0, #1000]	; 0x3e8
 8003812:	b510      	push	{r4, lr}
 8003814:	2b01      	cmp	r3, #1
 8003816:	4604      	mov	r4, r0
 8003818:	d00e      	beq.n	0x8003838
 800381a:	2101      	movs	r1, #1
 800381c:	f880 13e8 	strb.w	r1, [r0, #1000]	; 0x3e8
 8003820:	f000 fbf9 	bl	0x8004016
 8003824:	6820      	ldr	r0, [r4, #0]
 8003826:	f002 fad8 	bl	0x8005dda
 800382a:	6820      	ldr	r0, [r4, #0]
 800382c:	f001 ffdd 	bl	0x80057ea
 8003830:	2000      	movs	r0, #0
 8003832:	f884 03e8 	strb.w	r0, [r4, #1000]	; 0x3e8
 8003836:	bd10      	pop	{r4, pc}
 8003838:	2002      	movs	r0, #2
 800383a:	bd10      	pop	{r4, pc}
 800383c:	f890 33e8 	ldrb.w	r3, [r0, #1000]	; 0x3e8
 8003840:	b510      	push	{r4, lr}
 8003842:	2b01      	cmp	r3, #1
 8003844:	4604      	mov	r4, r0
 8003846:	d00f      	beq.n	0x8003868
 8003848:	2301      	movs	r3, #1
 800384a:	f880 33e8 	strb.w	r3, [r0, #1000]	; 0x3e8
 800384e:	6800      	ldr	r0, [r0, #0]
 8003850:	f001 ffd4 	bl	0x80057fc
 8003854:	6820      	ldr	r0, [r4, #0]
 8003856:	f002 faaf 	bl	0x8005db8
 800385a:	6820      	ldr	r0, [r4, #0]
 800385c:	f002 fabf 	bl	0x8005dde
 8003860:	2000      	movs	r0, #0
 8003862:	f884 03e8 	strb.w	r0, [r4, #1000]	; 0x3e8
 8003866:	bd10      	pop	{r4, pc}
 8003868:	2002      	movs	r0, #2
 800386a:	bd10      	pop	{r4, pc}
 800386c:	b510      	push	{r4, lr}
 800386e:	4604      	mov	r4, r0
 8003870:	b158      	cbz	r0, 0x800388a
 8003872:	2303      	movs	r3, #3
 8003874:	f880 33e9 	strb.w	r3, [r0, #1001]	; 0x3e9
 8003878:	f7ff ffe0 	bl	0x800383c
 800387c:	4620      	mov	r0, r4
 800387e:	f7ff ffc5 	bl	0x800380c
 8003882:	2000      	movs	r0, #0
 8003884:	f884 03e9 	strb.w	r0, [r4, #1001]	; 0x3e9
 8003888:	bd10      	pop	{r4, pc}
 800388a:	2001      	movs	r0, #1
 800388c:	bd10      	pop	{r4, pc}
 800388e:	4770      	bx	lr
 8003890:	4770      	bx	lr
 8003892:	4770      	bx	lr
 8003894:	4770      	bx	lr
 8003896:	4770      	bx	lr
 8003898:	4770      	bx	lr
 800389a:	4770      	bx	lr
 800389c:	4770      	bx	lr
 800389e:	4770      	bx	lr
 80038a0:	4770      	bx	lr
 80038a2:	4770      	bx	lr
 80038a4:	f890 33e8 	ldrb.w	r3, [r0, #1000]	; 0x3e8
 80038a8:	b510      	push	{r4, lr}
 80038aa:	2b01      	cmp	r3, #1
 80038ac:	4604      	mov	r4, r0
 80038ae:	d00b      	beq.n	0x80038c8
 80038b0:	2101      	movs	r1, #1
 80038b2:	f880 13e8 	strb.w	r1, [r0, #1000]	; 0x3e8
 80038b6:	f000 fbae 	bl	0x8004016
 80038ba:	6820      	ldr	r0, [r4, #0]
 80038bc:	f002 fa8d 	bl	0x8005dda
 80038c0:	2000      	movs	r0, #0
 80038c2:	f884 03e8 	strb.w	r0, [r4, #1000]	; 0x3e8
 80038c6:	bd10      	pop	{r4, pc}
 80038c8:	2002      	movs	r0, #2
 80038ca:	bd10      	pop	{r4, pc}
 80038cc:	f890 33e8 	ldrb.w	r3, [r0, #1000]	; 0x3e8
 80038d0:	b510      	push	{r4, lr}
 80038d2:	2b01      	cmp	r3, #1
 80038d4:	4604      	mov	r4, r0
 80038d6:	d00c      	beq.n	0x80038f2
 80038d8:	2301      	movs	r3, #1
 80038da:	2100      	movs	r1, #0
 80038dc:	f880 33e8 	strb.w	r3, [r0, #1000]	; 0x3e8
 80038e0:	f000 fb99 	bl	0x8004016
 80038e4:	6820      	ldr	r0, [r4, #0]
 80038e6:	f002 fa7a 	bl	0x8005dde
 80038ea:	2000      	movs	r0, #0
 80038ec:	f884 03e8 	strb.w	r0, [r4, #1000]	; 0x3e8
 80038f0:	bd10      	pop	{r4, pc}
 80038f2:	2002      	movs	r0, #2
 80038f4:	bd10      	pop	{r4, pc}
 80038f6:	f890 23e8 	ldrb.w	r2, [r0, #1000]	; 0x3e8
 80038fa:	b510      	push	{r4, lr}
 80038fc:	2a01      	cmp	r2, #1
 80038fe:	4604      	mov	r4, r0
 8003900:	d00b      	beq.n	0x800391a
 8003902:	2201      	movs	r2, #1
 8003904:	f880 23e8 	strb.w	r2, [r0, #1000]	; 0x3e8
 8003908:	f884 1024 	strb.w	r1, [r4, #36]	; 0x24
 800390c:	6800      	ldr	r0, [r0, #0]
 800390e:	f002 fa5e 	bl	0x8005dce
 8003912:	2000      	movs	r0, #0
 8003914:	f884 03e8 	strb.w	r0, [r4, #1000]	; 0x3e8
 8003918:	bd10      	pop	{r4, pc}
 800391a:	2002      	movs	r0, #2
 800391c:	bd10      	pop	{r4, pc}
 800391e:	b538      	push	{r3, r4, r5, lr}
 8003920:	4604      	mov	r4, r0
 8003922:	b248      	sxtb	r0, r1
 8003924:	2800      	cmp	r0, #0
 8003926:	f001 057f 	and.w	r5, r1, #127	; 0x7f
 800392a:	bfb5      	itete	lt
 800392c:	eb04 1145 	addlt.w	r1, r4, r5, lsl #5
 8003930:	eb04 1141 	addge.w	r1, r4, r1, lsl #5
 8003934:	3128      	addlt	r1, #40	; 0x28
 8003936:	f501 7102 	addge.w	r1, r1, #520	; 0x208
 800393a:	0fc0      	lsrs	r0, r0, #31
 800393c:	700d      	strb	r5, [r1, #0]
 800393e:	7048      	strb	r0, [r1, #1]
 8003940:	70cb      	strb	r3, [r1, #3]
 8003942:	f894 33e8 	ldrb.w	r3, [r4, #1000]	; 0x3e8
 8003946:	610a      	str	r2, [r1, #16]
 8003948:	2b01      	cmp	r3, #1
 800394a:	d009      	beq.n	0x8003960
 800394c:	2301      	movs	r3, #1
 800394e:	6820      	ldr	r0, [r4, #0]
 8003950:	f884 33e8 	strb.w	r3, [r4, #1000]	; 0x3e8
 8003954:	f001 ff76 	bl	0x8005844
 8003958:	2000      	movs	r0, #0
 800395a:	f884 03e8 	strb.w	r0, [r4, #1000]	; 0x3e8
 800395e:	bd38      	pop	{r3, r4, r5, pc}
 8003960:	2002      	movs	r0, #2
 8003962:	bd38      	pop	{r3, r4, r5, pc}
 8003964:	b24b      	sxtb	r3, r1
 8003966:	2b00      	cmp	r3, #0
 8003968:	f001 027f 	and.w	r2, r1, #127	; 0x7f
 800396c:	bfb5      	itete	lt
 800396e:	eb00 1142 	addlt.w	r1, r0, r2, lsl #5
 8003972:	eb00 1141 	addge.w	r1, r0, r1, lsl #5
 8003976:	3128      	addlt	r1, #40	; 0x28
 8003978:	f501 7102 	addge.w	r1, r1, #520	; 0x208
 800397c:	0fdb      	lsrs	r3, r3, #31
 800397e:	b510      	push	{r4, lr}
 8003980:	700a      	strb	r2, [r1, #0]
 8003982:	704b      	strb	r3, [r1, #1]
 8003984:	f890 33e8 	ldrb.w	r3, [r0, #1000]	; 0x3e8
 8003988:	4604      	mov	r4, r0
 800398a:	2b01      	cmp	r3, #1
 800398c:	d009      	beq.n	0x80039a2
 800398e:	2301      	movs	r3, #1
 8003990:	f880 33e8 	strb.w	r3, [r0, #1000]	; 0x3e8
 8003994:	6800      	ldr	r0, [r0, #0]
 8003996:	f002 f8c9 	bl	0x8005b2c
 800399a:	2000      	movs	r0, #0
 800399c:	f884 03e8 	strb.w	r0, [r4, #1000]	; 0x3e8
 80039a0:	bd10      	pop	{r4, pc}
 80039a2:	2002      	movs	r0, #2
 80039a4:	bd10      	pop	{r4, pc}
 80039a6:	b570      	push	{r4, r5, r6, lr}
 80039a8:	4604      	mov	r4, r0
 80039aa:	f001 067f 	and.w	r6, r1, #127	; 0x7f
 80039ae:	0170      	lsls	r0, r6, #5
 80039b0:	1825      	adds	r5, r4, r0
 80039b2:	f8c5 3220 	str.w	r3, [r5, #544]	; 0x220
 80039b6:	2300      	movs	r3, #0
 80039b8:	f8c5 3224 	str.w	r3, [r5, #548]	; 0x224
 80039bc:	f885 3209 	strb.w	r3, [r5, #521]	; 0x209
 80039c0:	f894 33e8 	ldrb.w	r3, [r4, #1000]	; 0x3e8
 80039c4:	f8c5 221c 	str.w	r2, [r5, #540]	; 0x21c
 80039c8:	2b01      	cmp	r3, #1
 80039ca:	f885 6208 	strb.w	r6, [r5, #520]	; 0x208
 80039ce:	d00c      	beq.n	0x80039ea
 80039d0:	2301      	movs	r3, #1
 80039d2:	f500 7002 	add.w	r0, r0, #520	; 0x208
 80039d6:	1821      	adds	r1, r4, r0
 80039d8:	f884 33e8 	strb.w	r3, [r4, #1000]	; 0x3e8
 80039dc:	6820      	ldr	r0, [r4, #0]
 80039de:	f002 fa33 	bl	0x8005e48
 80039e2:	2000      	movs	r0, #0
 80039e4:	f884 03e8 	strb.w	r0, [r4, #1000]	; 0x3e8
 80039e8:	bd70      	pop	{r4, r5, r6, pc}
 80039ea:	2002      	movs	r0, #2
 80039ec:	bd70      	pop	{r4, r5, r6, pc}
 80039ee:	f001 017f 	and.w	r1, r1, #127	; 0x7f
 80039f2:	eb00 1141 	add.w	r1, r0, r1, lsl #5
 80039f6:	f8b1 0224 	ldrh.w	r0, [r1, #548]	; 0x224
 80039fa:	4770      	bx	lr
 80039fc:	b570      	push	{r4, r5, r6, lr}
 80039fe:	4604      	mov	r4, r0
 8003a00:	f001 067f 	and.w	r6, r1, #127	; 0x7f
 8003a04:	0170      	lsls	r0, r6, #5
 8003a06:	1825      	adds	r5, r4, r0
 8003a08:	642b      	str	r3, [r5, #64]	; 0x40
 8003a0a:	2300      	movs	r3, #0
 8003a0c:	646b      	str	r3, [r5, #68]	; 0x44
 8003a0e:	2301      	movs	r3, #1
 8003a10:	63ea      	str	r2, [r5, #60]	; 0x3c
 8003a12:	f894 23e8 	ldrb.w	r2, [r4, #1000]	; 0x3e8
 8003a16:	f885 3029 	strb.w	r3, [r5, #41]	; 0x29
 8003a1a:	429a      	cmp	r2, r3
 8003a1c:	f885 6028 	strb.w	r6, [r5, #40]	; 0x28
 8003a20:	d00a      	beq.n	0x8003a38
 8003a22:	3028      	adds	r0, #40	; 0x28
 8003a24:	1821      	adds	r1, r4, r0
 8003a26:	f884 33e8 	strb.w	r3, [r4, #1000]	; 0x3e8
 8003a2a:	6820      	ldr	r0, [r4, #0]
 8003a2c:	f002 fa0c 	bl	0x8005e48
 8003a30:	2000      	movs	r0, #0
 8003a32:	f884 03e8 	strb.w	r0, [r4, #1000]	; 0x3e8
 8003a36:	bd70      	pop	{r4, r5, r6, pc}
 8003a38:	2002      	movs	r0, #2
 8003a3a:	bd70      	pop	{r4, r5, r6, pc}
 8003a3c:	e92d 47f3 	stmdb	sp!, {r0, r1, r4, r5, r6, r7, r8, r9, sl, lr}
 8003a40:	4604      	mov	r4, r0
 8003a42:	6800      	ldr	r0, [r0, #0]
 8003a44:	f002 f9cd 	bl	0x8005de2
 8003a48:	0400      	lsls	r0, r0, #16
 8003a4a:	f100 8094 	bmi.w	0x8003b76
 8003a4e:	6820      	ldr	r0, [r4, #0]
 8003a50:	f002 f9c7 	bl	0x8005de2
 8003a54:	0541      	lsls	r1, r0, #21
 8003a56:	d50f      	bpl.n	0x8003a78
 8003a58:	6822      	ldr	r2, [r4, #0]
 8003a5a:	4620      	mov	r0, r4
 8003a5c:	f8b2 3044 	ldrh.w	r3, [r2, #68]	; 0x44
 8003a60:	f423 6380 	bic.w	r3, r3, #1024	; 0x400
 8003a64:	041b      	lsls	r3, r3, #16
 8003a66:	0c1b      	lsrs	r3, r3, #16
 8003a68:	f8a2 3044 	strh.w	r3, [r2, #68]	; 0x44
 8003a6c:	f7ff ff13 	bl	0x8003896
 8003a70:	2100      	movs	r1, #0
 8003a72:	4620      	mov	r0, r4
 8003a74:	f7ff ff3f 	bl	0x80038f6
 8003a78:	6820      	ldr	r0, [r4, #0]
 8003a7a:	f002 f9b2 	bl	0x8005de2
 8003a7e:	0447      	lsls	r7, r0, #17
 8003a80:	d508      	bpl.n	0x8003a94
 8003a82:	6822      	ldr	r2, [r4, #0]
 8003a84:	f8b2 3044 	ldrh.w	r3, [r2, #68]	; 0x44
 8003a88:	f423 4380 	bic.w	r3, r3, #16384	; 0x4000
 8003a8c:	041b      	lsls	r3, r3, #16
 8003a8e:	0c1b      	lsrs	r3, r3, #16
 8003a90:	f8a2 3044 	strh.w	r3, [r2, #68]	; 0x44
 8003a94:	6820      	ldr	r0, [r4, #0]
 8003a96:	f002 f9a4 	bl	0x8005de2
 8003a9a:	0486      	lsls	r6, r0, #18
 8003a9c:	d508      	bpl.n	0x8003ab0
 8003a9e:	6822      	ldr	r2, [r4, #0]
 8003aa0:	f8b2 3044 	ldrh.w	r3, [r2, #68]	; 0x44
 8003aa4:	f423 5300 	bic.w	r3, r3, #8192	; 0x2000
 8003aa8:	041b      	lsls	r3, r3, #16
 8003aaa:	0c1b      	lsrs	r3, r3, #16
 8003aac:	f8a2 3044 	strh.w	r3, [r2, #68]	; 0x44
 8003ab0:	6820      	ldr	r0, [r4, #0]
 8003ab2:	f002 f996 	bl	0x8005de2
 8003ab6:	04c5      	lsls	r5, r0, #19
 8003ab8:	d518      	bpl.n	0x8003aec
 8003aba:	6822      	ldr	r2, [r4, #0]
 8003abc:	4620      	mov	r0, r4
 8003abe:	f8b2 3040 	ldrh.w	r3, [r2, #64]	; 0x40
 8003ac2:	f023 0304 	bic.w	r3, r3, #4
 8003ac6:	041b      	lsls	r3, r3, #16
 8003ac8:	0c1b      	lsrs	r3, r3, #16
 8003aca:	f8a2 3040 	strh.w	r3, [r2, #64]	; 0x40
 8003ace:	f44f 433d 	mov.w	r3, #48384	; 0xbd00
 8003ad2:	f8a2 3040 	strh.w	r3, [r2, #64]	; 0x40
 8003ad6:	f7ff fee0 	bl	0x800389a
 8003ada:	6822      	ldr	r2, [r4, #0]
 8003adc:	f8b2 3044 	ldrh.w	r3, [r2, #68]	; 0x44
 8003ae0:	f423 5380 	bic.w	r3, r3, #4096	; 0x1000
 8003ae4:	041b      	lsls	r3, r3, #16
 8003ae6:	0c1b      	lsrs	r3, r3, #16
 8003ae8:	f8a2 3044 	strh.w	r3, [r2, #68]	; 0x44
 8003aec:	6820      	ldr	r0, [r4, #0]
 8003aee:	f002 f978 	bl	0x8005de2
 8003af2:	0500      	lsls	r0, r0, #20
 8003af4:	d51d      	bpl.n	0x8003b32
 8003af6:	6820      	ldr	r0, [r4, #0]
 8003af8:	f8b0 3044 	ldrh.w	r3, [r0, #68]	; 0x44
 8003afc:	f423 6300 	bic.w	r3, r3, #2048	; 0x800
 8003b00:	041b      	lsls	r3, r3, #16
 8003b02:	0c1b      	lsrs	r3, r3, #16
 8003b04:	f8a0 3044 	strh.w	r3, [r0, #68]	; 0x44
 8003b08:	f8b0 3040 	ldrh.w	r3, [r0, #64]	; 0x40
 8003b0c:	b29b      	uxth	r3, r3
 8003b0e:	f043 0308 	orr.w	r3, r3, #8
 8003b12:	f8a0 3040 	strh.w	r3, [r0, #64]	; 0x40
 8003b16:	f8b0 3040 	ldrh.w	r3, [r0, #64]	; 0x40
 8003b1a:	b29b      	uxth	r3, r3
 8003b1c:	f043 0304 	orr.w	r3, r3, #4
 8003b20:	f8a0 3040 	strh.w	r3, [r0, #64]	; 0x40
 8003b24:	f002 f95d 	bl	0x8005de2
 8003b28:	04c1      	lsls	r1, r0, #19
 8003b2a:	d402      	bmi.n	0x8003b32
 8003b2c:	4620      	mov	r0, r4
 8003b2e:	f7ff feb3 	bl	0x8003898
 8003b32:	6820      	ldr	r0, [r4, #0]
 8003b34:	f002 f955 	bl	0x8005de2
 8003b38:	0582      	lsls	r2, r0, #22
 8003b3a:	d50b      	bpl.n	0x8003b54
 8003b3c:	6822      	ldr	r2, [r4, #0]
 8003b3e:	4620      	mov	r0, r4
 8003b40:	f8b2 3044 	ldrh.w	r3, [r2, #68]	; 0x44
 8003b44:	f423 7300 	bic.w	r3, r3, #512	; 0x200
 8003b48:	041b      	lsls	r3, r3, #16
 8003b4a:	0c1b      	lsrs	r3, r3, #16
 8003b4c:	f8a2 3044 	strh.w	r3, [r2, #68]	; 0x44
 8003b50:	f7ff fea0 	bl	0x8003894
 8003b54:	6820      	ldr	r0, [r4, #0]
 8003b56:	f002 f944 	bl	0x8005de2
 8003b5a:	05c3      	lsls	r3, r0, #23
 8003b5c:	d508      	bpl.n	0x8003b70
 8003b5e:	6822      	ldr	r2, [r4, #0]
 8003b60:	f8b2 3044 	ldrh.w	r3, [r2, #68]	; 0x44
 8003b64:	f423 7380 	bic.w	r3, r3, #256	; 0x100
 8003b68:	041b      	lsls	r3, r3, #16
 8003b6a:	0c1b      	lsrs	r3, r3, #16
 8003b6c:	f8a2 3044 	strh.w	r3, [r2, #68]	; 0x44
 8003b70:	b002      	add	sp, #8
 8003b72:	e8bd 87f0 	ldmia.w	sp!, {r4, r5, r6, r7, r8, r9, sl, pc}
 8003b76:	2300      	movs	r3, #0
 8003b78:	4fc3      	ldr	r7, [pc, #780]	; (0x8003e88)
 8003b7a:	f8df 8310 	ldr.w	r8, [pc, #784]	; 0x8003e8c
 8003b7e:	f8df 9310 	ldr.w	r9, [pc, #784]	; 0x8003e90
 8003b82:	f8ad 3004 	strh.w	r3, [sp, #4]
 8003b86:	f8ad 3006 	strh.w	r3, [sp, #6]
 8003b8a:	6820      	ldr	r0, [r4, #0]
 8003b8c:	f8b0 3044 	ldrh.w	r3, [r0, #68]	; 0x44
 8003b90:	b29b      	uxth	r3, r3
 8003b92:	f8ad 3004 	strh.w	r3, [sp, #4]
 8003b96:	041b      	lsls	r3, r3, #16
 8003b98:	f57f af59 	bpl.w	0x8003a4e
 8003b9c:	f8bd 5004 	ldrh.w	r5, [sp, #4]
 8003ba0:	f015 050f 	ands.w	r5, r5, #15
 8003ba4:	f040 80ab 	bne.w	0x8003cfe
 8003ba8:	f8bd 1004 	ldrh.w	r1, [sp, #4]
 8003bac:	8803      	ldrh	r3, [r0, #0]
 8003bae:	f011 0110 	ands.w	r1, r1, #16
 8003bb2:	b29b      	uxth	r3, r3
 8003bb4:	d126      	bne.n	0x8003c04
 8003bb6:	403b      	ands	r3, r7
 8003bb8:	8003      	strh	r3, [r0, #0]
 8003bba:	f8b0 3050 	ldrh.w	r3, [r0, #80]	; 0x50
 8003bbe:	f894 2028 	ldrb.w	r2, [r4, #40]	; 0x28
 8003bc2:	b29b      	uxth	r3, r3
 8003bc4:	eb03 03c2 	add.w	r3, r3, r2, lsl #3
 8003bc8:	eb00 0043 	add.w	r0, r0, r3, lsl #1
 8003bcc:	f8d0 3404 	ldr.w	r3, [r0, #1028]	; 0x404
 8003bd0:	6be2      	ldr	r2, [r4, #60]	; 0x3c
 8003bd2:	f3c3 0309 	ubfx	r3, r3, #0, #10
 8003bd6:	6463      	str	r3, [r4, #68]	; 0x44
 8003bd8:	4413      	add	r3, r2
 8003bda:	63e3      	str	r3, [r4, #60]	; 0x3c
 8003bdc:	4620      	mov	r0, r4
 8003bde:	f7ff fe57 	bl	0x8003890
 8003be2:	f894 3024 	ldrb.w	r3, [r4, #36]	; 0x24
 8003be6:	2b00      	cmp	r3, #0
 8003be8:	d0cf      	beq.n	0x8003b8a
 8003bea:	6c22      	ldr	r2, [r4, #64]	; 0x40
 8003bec:	2a00      	cmp	r2, #0
 8003bee:	d1cc      	bne.n	0x8003b8a
 8003bf0:	f894 3024 	ldrb.w	r3, [r4, #36]	; 0x24
 8003bf4:	6821      	ldr	r1, [r4, #0]
 8003bf6:	f043 0380 	orr.w	r3, r3, #128	; 0x80
 8003bfa:	f8a1 304c 	strh.w	r3, [r1, #76]	; 0x4c
 8003bfe:	f884 2024 	strb.w	r2, [r4, #36]	; 0x24
 8003c02:	e7c2      	b.n	0x8003b8a
 8003c04:	f8ad 3006 	strh.w	r3, [sp, #6]
 8003c08:	f8bd 3006 	ldrh.w	r3, [sp, #6]
 8003c0c:	051a      	lsls	r2, r3, #20
 8003c0e:	d51f      	bpl.n	0x8003c50
 8003c10:	f8b0 3050 	ldrh.w	r3, [r0, #80]	; 0x50
 8003c14:	f894 2208 	ldrb.w	r2, [r4, #520]	; 0x208
 8003c18:	b29b      	uxth	r3, r3
 8003c1a:	eb03 03c2 	add.w	r3, r3, r2, lsl #3
 8003c1e:	eb00 0343 	add.w	r3, r0, r3, lsl #1
 8003c22:	f8d3 340c 	ldr.w	r3, [r3, #1036]	; 0x40c
 8003c26:	f8b4 220c 	ldrh.w	r2, [r4, #524]	; 0x20c
 8003c2a:	f3c3 0309 	ubfx	r3, r3, #0, #10
 8003c2e:	f8c4 3224 	str.w	r3, [r4, #548]	; 0x224
 8003c32:	f504 717b 	add.w	r1, r4, #1004	; 0x3ec
 8003c36:	f002 f9db 	bl	0x8005ff0
 8003c3a:	6822      	ldr	r2, [r4, #0]
 8003c3c:	4620      	mov	r0, r4
 8003c3e:	8813      	ldrh	r3, [r2, #0]
 8003c40:	f023 0370 	bic.w	r3, r3, #112	; 0x70
 8003c44:	051b      	lsls	r3, r3, #20
 8003c46:	0d1b      	lsrs	r3, r3, #20
 8003c48:	8013      	strh	r3, [r2, #0]
 8003c4a:	f7ff fe22 	bl	0x8003892
 8003c4e:	e79c      	b.n	0x8003b8a
 8003c50:	f8bd 3006 	ldrh.w	r3, [sp, #6]
 8003c54:	041b      	lsls	r3, r3, #16
 8003c56:	d598      	bpl.n	0x8003b8a
 8003c58:	8803      	ldrh	r3, [r0, #0]
 8003c5a:	f023 0370 	bic.w	r3, r3, #112	; 0x70
 8003c5e:	051b      	lsls	r3, r3, #20
 8003c60:	0d1b      	lsrs	r3, r3, #20
 8003c62:	8003      	strh	r3, [r0, #0]
 8003c64:	f8b0 3050 	ldrh.w	r3, [r0, #80]	; 0x50
 8003c68:	f894 2208 	ldrb.w	r2, [r4, #520]	; 0x208
 8003c6c:	b29b      	uxth	r3, r3
 8003c6e:	eb03 03c2 	add.w	r3, r3, r2, lsl #3
 8003c72:	eb00 0343 	add.w	r3, r0, r3, lsl #1
 8003c76:	f8d3 340c 	ldr.w	r3, [r3, #1036]	; 0x40c
 8003c7a:	f3c3 0309 	ubfx	r3, r3, #0, #10
 8003c7e:	f8c4 3224 	str.w	r3, [r4, #548]	; 0x224
 8003c82:	b163      	cbz	r3, 0x8003c9e
 8003c84:	f8b4 220c 	ldrh.w	r2, [r4, #524]	; 0x20c
 8003c88:	f8d4 121c 	ldr.w	r1, [r4, #540]	; 0x21c
 8003c8c:	f002 f9b0 	bl	0x8005ff0
 8003c90:	f8d4 321c 	ldr.w	r3, [r4, #540]	; 0x21c
 8003c94:	f8d4 2224 	ldr.w	r2, [r4, #548]	; 0x224
 8003c98:	4413      	add	r3, r2
 8003c9a:	f8c4 321c 	str.w	r3, [r4, #540]	; 0x21c
 8003c9e:	2100      	movs	r1, #0
 8003ca0:	4620      	mov	r0, r4
 8003ca2:	f7ff fdf4 	bl	0x800388e
 8003ca6:	6822      	ldr	r2, [r4, #0]
 8003ca8:	f8d4 5218 	ldr.w	r5, [r4, #536]	; 0x218
 8003cac:	f8b2 1050 	ldrh.w	r1, [r2, #80]	; 0x50
 8003cb0:	2d3e      	cmp	r5, #62	; 0x3e
 8003cb2:	b289      	uxth	r1, r1
 8003cb4:	f101 0106 	add.w	r1, r1, #6
 8003cb8:	f502 6080 	add.w	r0, r2, #1024	; 0x400
 8003cbc:	d917      	bls.n	0x8003cee
 8003cbe:	f3c5 134f 	ubfx	r3, r5, #5, #16
 8003cc2:	06ee      	lsls	r6, r5, #27
 8003cc4:	bf04      	itt	eq
 8003cc6:	f103 33ff 	addeq.w	r3, r3, #4294967295	; 0xffffffff
 8003cca:	b29b      	uxtheq	r3, r3
 8003ccc:	ea49 2383 	orr.w	r3, r9, r3, lsl #10
 8003cd0:	b29b      	uxth	r3, r3
 8003cd2:	f840 3011 	str.w	r3, [r0, r1, lsl #1]
 8003cd6:	8813      	ldrh	r3, [r2, #0]
 8003cd8:	b29b      	uxth	r3, r3
 8003cda:	ea03 0308 	and.w	r3, r3, r8
 8003cde:	f483 5340 	eor.w	r3, r3, #12288	; 0x3000
 8003ce2:	f443 4300 	orr.w	r3, r3, #32768	; 0x8000
 8003ce6:	f043 0380 	orr.w	r3, r3, #128	; 0x80
 8003cea:	8013      	strh	r3, [r2, #0]
 8003cec:	e74d      	b.n	0x8003b8a
 8003cee:	f3c5 034f 	ubfx	r3, r5, #1, #16
 8003cf2:	07ed      	lsls	r5, r5, #31
 8003cf4:	bf44      	itt	mi
 8003cf6:	3301      	addmi	r3, #1
 8003cf8:	b29b      	uxthmi	r3, r3
 8003cfa:	029b      	lsls	r3, r3, #10
 8003cfc:	e7e8      	b.n	0x8003cd0
 8003cfe:	f830 3025 	ldrh.w	r3, [r0, r5, lsl #2]
 8003d02:	b29b      	uxth	r3, r3
 8003d04:	f8ad 3006 	strh.w	r3, [sp, #6]
 8003d08:	f8bd 3006 	ldrh.w	r3, [sp, #6]
 8003d0c:	0419      	lsls	r1, r3, #16
 8003d0e:	d53d      	bpl.n	0x8003d8c
 8003d10:	f830 3025 	ldrh.w	r3, [r0, r5, lsl #2]
 8003d14:	ea4f 1a45 	mov.w	sl, r5, lsl #5
 8003d18:	f023 0370 	bic.w	r3, r3, #112	; 0x70
 8003d1c:	051b      	lsls	r3, r3, #20
 8003d1e:	0d1b      	lsrs	r3, r3, #20
 8003d20:	f820 3025 	strh.w	r3, [r0, r5, lsl #2]
 8003d24:	eb04 010a 	add.w	r1, r4, sl
 8003d28:	f891 3212 	ldrb.w	r3, [r1, #530]	; 0x212
 8003d2c:	2b00      	cmp	r3, #0
 8003d2e:	d16f      	bne.n	0x8003e10
 8003d30:	f8b0 3050 	ldrh.w	r3, [r0, #80]	; 0x50
 8003d34:	f891 2208 	ldrb.w	r2, [r1, #520]	; 0x208
 8003d38:	b29b      	uxth	r3, r3
 8003d3a:	eb03 03c2 	add.w	r3, r3, r2, lsl #3
 8003d3e:	eb00 0343 	add.w	r3, r0, r3, lsl #1
 8003d42:	f8d3 640c 	ldr.w	r6, [r3, #1036]	; 0x40c
 8003d46:	f3c6 0609 	ubfx	r6, r6, #0, #10
 8003d4a:	b136      	cbz	r6, 0x8003d5a
 8003d4c:	f8b1 220c 	ldrh.w	r2, [r1, #524]	; 0x20c
 8003d50:	4633      	mov	r3, r6
 8003d52:	f8d1 121c 	ldr.w	r1, [r1, #540]	; 0x21c
 8003d56:	f002 f94b 	bl	0x8005ff0
 8003d5a:	eb04 010a 	add.w	r1, r4, sl
 8003d5e:	f8d1 3224 	ldr.w	r3, [r1, #548]	; 0x224
 8003d62:	f8d1 221c 	ldr.w	r2, [r1, #540]	; 0x21c
 8003d66:	4433      	add	r3, r6
 8003d68:	f8c1 3224 	str.w	r3, [r1, #548]	; 0x224
 8003d6c:	f8d1 3220 	ldr.w	r3, [r1, #544]	; 0x220
 8003d70:	4432      	add	r2, r6
 8003d72:	f8c1 221c 	str.w	r2, [r1, #540]	; 0x21c
 8003d76:	b11b      	cbz	r3, 0x8003d80
 8003d78:	f8d1 0218 	ldr.w	r0, [r1, #536]	; 0x218
 8003d7c:	4286      	cmp	r6, r0
 8003d7e:	d27d      	bcs.n	0x8003e7c
 8003d80:	44a2      	add	sl, r4
 8003d82:	f89a 1208 	ldrb.w	r1, [sl, #520]	; 0x208
 8003d86:	4620      	mov	r0, r4
 8003d88:	f7ff fd81 	bl	0x800388e
 8003d8c:	f8bd 3006 	ldrh.w	r3, [sp, #6]
 8003d90:	061a      	lsls	r2, r3, #24
 8003d92:	f57f aefa 	bpl.w	0x8003b8a
 8003d96:	6820      	ldr	r0, [r4, #0]
 8003d98:	016e      	lsls	r6, r5, #5
 8003d9a:	f830 3025 	ldrh.w	r3, [r0, r5, lsl #2]
 8003d9e:	19a1      	adds	r1, r4, r6
 8003da0:	b29b      	uxth	r3, r3
 8003da2:	403b      	ands	r3, r7
 8003da4:	f820 3025 	strh.w	r3, [r0, r5, lsl #2]
 8003da8:	f891 3032 	ldrb.w	r3, [r1, #50]	; 0x32
 8003dac:	3502      	adds	r5, #2
 8003dae:	2b00      	cmp	r3, #0
 8003db0:	d170      	bne.n	0x8003e94
 8003db2:	f8b0 3050 	ldrh.w	r3, [r0, #80]	; 0x50
 8003db6:	f891 2028 	ldrb.w	r2, [r1, #40]	; 0x28
 8003dba:	b29b      	uxth	r3, r3
 8003dbc:	eb03 03c2 	add.w	r3, r3, r2, lsl #3
 8003dc0:	eb00 0343 	add.w	r3, r0, r3, lsl #1
 8003dc4:	f8d3 3404 	ldr.w	r3, [r3, #1028]	; 0x404
 8003dc8:	eb04 1545 	add.w	r5, r4, r5, lsl #5
 8003dcc:	f3c3 0309 	ubfx	r3, r3, #0, #10
 8003dd0:	606b      	str	r3, [r5, #4]
 8003dd2:	b11b      	cbz	r3, 0x8003ddc
 8003dd4:	8d8a      	ldrh	r2, [r1, #44]	; 0x2c
 8003dd6:	6bc9      	ldr	r1, [r1, #60]	; 0x3c
 8003dd8:	f002 f825 	bl	0x8005e26
 8003ddc:	6822      	ldr	r2, [r4, #0]
 8003dde:	4426      	add	r6, r4
 8003de0:	f8b2 3050 	ldrh.w	r3, [r2, #80]	; 0x50
 8003de4:	f896 1028 	ldrb.w	r1, [r6, #40]	; 0x28
 8003de8:	b29b      	uxth	r3, r3
 8003dea:	eb03 03c1 	add.w	r3, r3, r1, lsl #3
 8003dee:	eb02 0343 	add.w	r3, r2, r3, lsl #1
 8003df2:	f8d3 2404 	ldr.w	r2, [r3, #1028]	; 0x404
 8003df6:	6bf3      	ldr	r3, [r6, #60]	; 0x3c
 8003df8:	f3c2 0209 	ubfx	r2, r2, #0, #10
 8003dfc:	6472      	str	r2, [r6, #68]	; 0x44
 8003dfe:	441a      	add	r2, r3
 8003e00:	6c33      	ldr	r3, [r6, #64]	; 0x40
 8003e02:	63f2      	str	r2, [r6, #60]	; 0x3c
 8003e04:	4620      	mov	r0, r4
 8003e06:	2b00      	cmp	r3, #0
 8003e08:	d17a      	bne.n	0x8003f00
 8003e0a:	f7ff fd41 	bl	0x8003890
 8003e0e:	e6bc      	b.n	0x8003b8a
 8003e10:	f891 3208 	ldrb.w	r3, [r1, #520]	; 0x208
 8003e14:	f830 2023 	ldrh.w	r2, [r0, r3, lsl #2]
 8003e18:	00db      	lsls	r3, r3, #3
 8003e1a:	f412 4f80 	tst.w	r2, #16384	; 0x4000
 8003e1e:	f8b0 2050 	ldrh.w	r2, [r0, #80]	; 0x50
 8003e22:	b292      	uxth	r2, r2
 8003e24:	4413      	add	r3, r2
 8003e26:	eb00 0343 	add.w	r3, r0, r3, lsl #1
 8003e2a:	d01d      	beq.n	0x8003e68
 8003e2c:	f8d3 6404 	ldr.w	r6, [r3, #1028]	; 0x404
 8003e30:	f3c6 0609 	ubfx	r6, r6, #0, #10
 8003e34:	b136      	cbz	r6, 0x8003e44
 8003e36:	4633      	mov	r3, r6
 8003e38:	f8b1 220e 	ldrh.w	r2, [r1, #526]	; 0x20e
 8003e3c:	f8d1 121c 	ldr.w	r1, [r1, #540]	; 0x21c
 8003e40:	f002 f8d6 	bl	0x8005ff0
 8003e44:	eb04 030a 	add.w	r3, r4, sl
 8003e48:	f893 1208 	ldrb.w	r1, [r3, #520]	; 0x208
 8003e4c:	6822      	ldr	r2, [r4, #0]
 8003e4e:	f832 3021 	ldrh.w	r3, [r2, r1, lsl #2]
 8003e52:	f023 03f0 	bic.w	r3, r3, #240	; 0xf0
 8003e56:	051b      	lsls	r3, r3, #20
 8003e58:	0d1b      	lsrs	r3, r3, #20
 8003e5a:	f443 4300 	orr.w	r3, r3, #32768	; 0x8000
 8003e5e:	f043 03c0 	orr.w	r3, r3, #192	; 0xc0
 8003e62:	f822 3021 	strh.w	r3, [r2, r1, lsl #2]
 8003e66:	e778      	b.n	0x8003d5a
 8003e68:	f8d3 640c 	ldr.w	r6, [r3, #1036]	; 0x40c
 8003e6c:	f3c6 0609 	ubfx	r6, r6, #0, #10
 8003e70:	2e00      	cmp	r6, #0
 8003e72:	d0e7      	beq.n	0x8003e44
 8003e74:	4633      	mov	r3, r6
 8003e76:	f8b1 2210 	ldrh.w	r2, [r1, #528]	; 0x210
 8003e7a:	e7df      	b.n	0x8003e3c
 8003e7c:	f891 1208 	ldrb.w	r1, [r1, #520]	; 0x208
 8003e80:	4620      	mov	r0, r4
 8003e82:	f7ff fd90 	bl	0x80039a6
 8003e86:	e781      	b.n	0x8003d8c
 8003e88:	8f0f      	ldrh	r7, [r1, #56]	; 0x38
 8003e8a:	ffff bf8f 			; <UNDEFINED> instruction: 0xffffbf8f
 8003e8e:	ffff 8000 	vaddl.u<illegal width 64>	q12, d15, d0
 8003e92:	ffff f891 			; <UNDEFINED> instruction: 0xfffff891
 8003e96:	3028      	adds	r0, #40	; 0x28
 8003e98:	f830 2023 	ldrh.w	r2, [r0, r3, lsl #2]
 8003e9c:	00db      	lsls	r3, r3, #3
 8003e9e:	f012 0f40 	tst.w	r2, #64	; 0x40
 8003ea2:	f8b0 2050 	ldrh.w	r2, [r0, #80]	; 0x50
 8003ea6:	b292      	uxth	r2, r2
 8003ea8:	4413      	add	r3, r2
 8003eaa:	eb00 0343 	add.w	r3, r0, r3, lsl #1
 8003eae:	d01c      	beq.n	0x8003eea
 8003eb0:	f8d3 3404 	ldr.w	r3, [r3, #1028]	; 0x404
 8003eb4:	eb04 1545 	add.w	r5, r4, r5, lsl #5
 8003eb8:	f3c3 0309 	ubfx	r3, r3, #0, #10
 8003ebc:	606b      	str	r3, [r5, #4]
 8003ebe:	b11b      	cbz	r3, 0x8003ec8
 8003ec0:	8dca      	ldrh	r2, [r1, #46]	; 0x2e
 8003ec2:	6bc9      	ldr	r1, [r1, #60]	; 0x3c
 8003ec4:	f001 ffaf 	bl	0x8005e26
 8003ec8:	19a3      	adds	r3, r4, r6
 8003eca:	f893 1028 	ldrb.w	r1, [r3, #40]	; 0x28
 8003ece:	6822      	ldr	r2, [r4, #0]
 8003ed0:	f832 3021 	ldrh.w	r3, [r2, r1, lsl #2]
 8003ed4:	f023 03f0 	bic.w	r3, r3, #240	; 0xf0
 8003ed8:	051b      	lsls	r3, r3, #20
 8003eda:	0d1b      	lsrs	r3, r3, #20
 8003edc:	f443 4340 	orr.w	r3, r3, #49152	; 0xc000
 8003ee0:	f043 0380 	orr.w	r3, r3, #128	; 0x80
 8003ee4:	f822 3021 	strh.w	r3, [r2, r1, lsl #2]
 8003ee8:	e778      	b.n	0x8003ddc
 8003eea:	f8d3 340c 	ldr.w	r3, [r3, #1036]	; 0x40c
 8003eee:	eb04 1545 	add.w	r5, r4, r5, lsl #5
 8003ef2:	f3c3 0309 	ubfx	r3, r3, #0, #10
 8003ef6:	606b      	str	r3, [r5, #4]
 8003ef8:	2b00      	cmp	r3, #0
 8003efa:	d0e5      	beq.n	0x8003ec8
 8003efc:	8e0a      	ldrh	r2, [r1, #48]	; 0x30
 8003efe:	e7e0      	b.n	0x8003ec2
 8003f00:	f7ff fd7c 	bl	0x80039fc
 8003f04:	e641      	b.n	0x8003b8a
 8003f06:	bf00      	nop
 8003f08:	2201      	movs	r2, #1
 8003f0a:	b538      	push	{r3, r4, r5, lr}
 8003f0c:	b24b      	sxtb	r3, r1
 8003f0e:	2b00      	cmp	r3, #0
 8003f10:	f001 057f 	and.w	r5, r1, #127	; 0x7f
 8003f14:	bfb5      	itete	lt
 8003f16:	eb00 1145 	addlt.w	r1, r0, r5, lsl #5
 8003f1a:	eb00 1141 	addge.w	r1, r0, r1, lsl #5
 8003f1e:	3128      	addlt	r1, #40	; 0x28
 8003f20:	f501 7102 	addge.w	r1, r1, #520	; 0x208
 8003f24:	0fdb      	lsrs	r3, r3, #31
 8003f26:	b2ed      	uxtb	r5, r5
 8003f28:	708a      	strb	r2, [r1, #2]
 8003f2a:	700d      	strb	r5, [r1, #0]
 8003f2c:	704b      	strb	r3, [r1, #1]
 8003f2e:	f890 33e8 	ldrb.w	r3, [r0, #1000]	; 0x3e8
 8003f32:	4604      	mov	r4, r0
 8003f34:	4293      	cmp	r3, r2
 8003f36:	d00e      	beq.n	0x8003f56
 8003f38:	f880 23e8 	strb.w	r2, [r0, #1000]	; 0x3e8
 8003f3c:	6800      	ldr	r0, [r0, #0]
 8003f3e:	f001 fec7 	bl	0x8005cd0
 8003f42:	b925      	cbnz	r5, 0x8003f4e
 8003f44:	f504 717b 	add.w	r1, r4, #1004	; 0x3ec
 8003f48:	6820      	ldr	r0, [r4, #0]
 8003f4a:	f001 ff57 	bl	0x8005dfc
 8003f4e:	2000      	movs	r0, #0
 8003f50:	f884 03e8 	strb.w	r0, [r4, #1000]	; 0x3e8
 8003f54:	bd38      	pop	{r3, r4, r5, pc}
 8003f56:	2002      	movs	r0, #2
 8003f58:	bd38      	pop	{r3, r4, r5, pc}
 8003f5a:	b538      	push	{r3, r4, r5, lr}
 8003f5c:	2400      	movs	r4, #0
 8003f5e:	b24b      	sxtb	r3, r1
 8003f60:	2b00      	cmp	r3, #0
 8003f62:	f001 027f 	and.w	r2, r1, #127	; 0x7f
 8003f66:	bfb5      	itete	lt
 8003f68:	eb00 1142 	addlt.w	r1, r0, r2, lsl #5
 8003f6c:	eb00 1141 	addge.w	r1, r0, r1, lsl #5
 8003f70:	3128      	addlt	r1, #40	; 0x28
 8003f72:	f501 7102 	addge.w	r1, r1, #520	; 0x208
 8003f76:	0fdb      	lsrs	r3, r3, #31
 8003f78:	708c      	strb	r4, [r1, #2]
 8003f7a:	700a      	strb	r2, [r1, #0]
 8003f7c:	704b      	strb	r3, [r1, #1]
 8003f7e:	f890 33e8 	ldrb.w	r3, [r0, #1000]	; 0x3e8
 8003f82:	4605      	mov	r5, r0
 8003f84:	2b01      	cmp	r3, #1
 8003f86:	d009      	beq.n	0x8003f9c
 8003f88:	2301      	movs	r3, #1
 8003f8a:	f880 33e8 	strb.w	r3, [r0, #1000]	; 0x3e8
 8003f8e:	6800      	ldr	r0, [r0, #0]
 8003f90:	f001 fed0 	bl	0x8005d34
 8003f94:	f885 43e8 	strb.w	r4, [r5, #1000]	; 0x3e8
 8003f98:	4620      	mov	r0, r4
 8003f9a:	bd38      	pop	{r3, r4, r5, pc}
 8003f9c:	2002      	movs	r0, #2
 8003f9e:	bd38      	pop	{r3, r4, r5, pc}
 8003fa0:	f890 33e8 	ldrb.w	r3, [r0, #1000]	; 0x3e8
 8003fa4:	b510      	push	{r4, lr}
 8003fa6:	2b01      	cmp	r3, #1
 8003fa8:	4604      	mov	r4, r0
 8003faa:	d011      	beq.n	0x8003fd0
 8003fac:	2301      	movs	r3, #1
 8003fae:	f880 33e8 	strb.w	r3, [r0, #1000]	; 0x3e8
 8003fb2:	060b      	lsls	r3, r1, #24
 8003fb4:	d508      	bpl.n	0x8003fc8
 8003fb6:	f001 017f 	and.w	r1, r1, #127	; 0x7f
 8003fba:	6800      	ldr	r0, [r0, #0]
 8003fbc:	f001 fc3e 	bl	0x800583c
 8003fc0:	2000      	movs	r0, #0
 8003fc2:	f884 03e8 	strb.w	r0, [r4, #1000]	; 0x3e8
 8003fc6:	bd10      	pop	{r4, pc}
 8003fc8:	6800      	ldr	r0, [r0, #0]
 8003fca:	f001 fc39 	bl	0x8005840
 8003fce:	e7f7      	b.n	0x8003fc0
 8003fd0:	2002      	movs	r0, #2
 8003fd2:	bd10      	pop	{r4, pc}
 8003fd4:	6800      	ldr	r0, [r0, #0]
 8003fd6:	f001 bf13 	b.w	0x8005e00
 8003fda:	6800      	ldr	r0, [r0, #0]
 8003fdc:	f001 bf19 	b.w	0x8005e12
 8003fe0:	f890 03e9 	ldrb.w	r0, [r0, #1001]	; 0x3e9
 8003fe4:	4770      	bx	lr
 8003fe6:	f011 0f80 	tst.w	r1, #128	; 0x80
 8003fea:	bf1b      	ittet	ne
 8003fec:	f001 017f 	andne.w	r1, r1, #127	; 0x7f
 8003ff0:	eb00 1041 	addne.w	r0, r0, r1, lsl #5
 8003ff4:	eb00 1041 	addeq.w	r0, r0, r1, lsl #5
 8003ff8:	3028      	addne	r0, #40	; 0x28
 8003ffa:	bf08      	it	eq
 8003ffc:	f500 7002 	addeq.w	r0, r0, #520	; 0x208
 8004000:	b91a      	cbnz	r2, 0x800400a
 8004002:	7282      	strb	r2, [r0, #10]
 8004004:	8083      	strh	r3, [r0, #4]
 8004006:	2000      	movs	r0, #0
 8004008:	4770      	bx	lr
 800400a:	2201      	movs	r2, #1
 800400c:	80c3      	strh	r3, [r0, #6]
 800400e:	0c1b      	lsrs	r3, r3, #16
 8004010:	7282      	strb	r2, [r0, #10]
 8004012:	8103      	strh	r3, [r0, #8]
 8004014:	e7f7      	b.n	0x8004006
 8004016:	4770      	bx	lr
 8004018:	bf20      	wfe
 800401a:	bf00      	nop
 800401c:	4770      	bx	lr
 800401e:	0000      	movs	r0, r0
 8004020:	4b04      	ldr	r3, [pc, #16]	; (0x8004034)
 8004022:	691a      	ldr	r2, [r3, #16]
 8004024:	f042 5280 	orr.w	r2, r2, #268435456	; 0x10000000
 8004028:	611a      	str	r2, [r3, #16]
 800402a:	691a      	ldr	r2, [r3, #16]
 800402c:	f022 5280 	bic.w	r2, r2, #268435456	; 0x10000000
 8004030:	611a      	str	r2, [r3, #16]
 8004032:	4770      	bx	lr
 8004034:	1000      	asrs	r0, r0, #32
 8004036:	4002      	ands	r2, r0
 8004038:	f44f 7380 	mov.w	r3, #256	; 0x100
 800403c:	fa93 f3a3 	rbit	r3, r3
 8004040:	fab3 f383 	clz	r3, r3
 8004044:	2201      	movs	r2, #1
 8004046:	009b      	lsls	r3, r3, #2
 8004048:	f103 4384 	add.w	r3, r3, #1107296256	; 0x42000000
 800404c:	f503 2360 	add.w	r3, r3, #917504	; 0xe0000
 8004050:	601a      	str	r2, [r3, #0]
 8004052:	4770      	bx	lr
 8004054:	f44f 7380 	mov.w	r3, #256	; 0x100
 8004058:	fa93 f3a3 	rbit	r3, r3
 800405c:	fab3 f383 	clz	r3, r3
 8004060:	2200      	movs	r2, #0
 8004062:	009b      	lsls	r3, r3, #2
 8004064:	f103 4384 	add.w	r3, r3, #1107296256	; 0x42000000
 8004068:	f503 2360 	add.w	r3, r3, #917504	; 0xe0000
 800406c:	601a      	str	r2, [r3, #0]
 800406e:	4770      	bx	lr
 8004070:	4a18      	ldr	r2, [pc, #96]	; (0x80040d4)
 8004072:	6801      	ldr	r1, [r0, #0]
 8004074:	6813      	ldr	r3, [r2, #0]
 8004076:	f023 03e0 	bic.w	r3, r3, #224	; 0xe0
 800407a:	430b      	orrs	r3, r1
 800407c:	6013      	str	r3, [r2, #0]
 800407e:	4b16      	ldr	r3, [pc, #88]	; (0x80040d8)
 8004080:	685a      	ldr	r2, [r3, #4]
 8004082:	f422 3280 	bic.w	r2, r2, #65536	; 0x10000
 8004086:	605a      	str	r2, [r3, #4]
 8004088:	681a      	ldr	r2, [r3, #0]
 800408a:	f422 3280 	bic.w	r2, r2, #65536	; 0x10000
 800408e:	601a      	str	r2, [r3, #0]
 8004090:	68da      	ldr	r2, [r3, #12]
 8004092:	f422 3280 	bic.w	r2, r2, #65536	; 0x10000
 8004096:	60da      	str	r2, [r3, #12]
 8004098:	689a      	ldr	r2, [r3, #8]
 800409a:	f422 3280 	bic.w	r2, r2, #65536	; 0x10000
 800409e:	609a      	str	r2, [r3, #8]
 80040a0:	6842      	ldr	r2, [r0, #4]
 80040a2:	03d1      	lsls	r1, r2, #15
 80040a4:	bf42      	ittt	mi
 80040a6:	6819      	ldrmi	r1, [r3, #0]
 80040a8:	f441 3180 	orrmi.w	r1, r1, #65536	; 0x10000
 80040ac:	6019      	strmi	r1, [r3, #0]
 80040ae:	0390      	lsls	r0, r2, #14
 80040b0:	bf42      	ittt	mi
 80040b2:	6859      	ldrmi	r1, [r3, #4]
 80040b4:	f441 3180 	orrmi.w	r1, r1, #65536	; 0x10000
 80040b8:	6059      	strmi	r1, [r3, #4]
 80040ba:	07d1      	lsls	r1, r2, #31
 80040bc:	bf42      	ittt	mi
 80040be:	6899      	ldrmi	r1, [r3, #8]
 80040c0:	f441 3180 	orrmi.w	r1, r1, #65536	; 0x10000
 80040c4:	6099      	strmi	r1, [r3, #8]
 80040c6:	0792      	lsls	r2, r2, #30
 80040c8:	bf42      	ittt	mi
 80040ca:	68da      	ldrmi	r2, [r3, #12]
 80040cc:	f442 3280 	orrmi.w	r2, r2, #65536	; 0x10000
 80040d0:	60da      	strmi	r2, [r3, #12]
 80040d2:	4770      	bx	lr
 80040d4:	7000      	strb	r0, [r0, #0]
 80040d6:	4000      	ands	r0, r0
 80040d8:	0400      	lsls	r0, r0, #16
 80040da:	4001      	ands	r1, r0
 80040dc:	2310      	movs	r3, #16
 80040de:	fa93 f3a3 	rbit	r3, r3
 80040e2:	fab3 f383 	clz	r3, r3
 80040e6:	2201      	movs	r2, #1
 80040e8:	009b      	lsls	r3, r3, #2
 80040ea:	f103 4384 	add.w	r3, r3, #1107296256	; 0x42000000
 80040ee:	f503 2360 	add.w	r3, r3, #917504	; 0xe0000
 80040f2:	601a      	str	r2, [r3, #0]
 80040f4:	4770      	bx	lr
 80040f6:	2310      	movs	r3, #16
 80040f8:	fa93 f3a3 	rbit	r3, r3
 80040fc:	fab3 f383 	clz	r3, r3
 8004100:	2200      	movs	r2, #0
 8004102:	009b      	lsls	r3, r3, #2
 8004104:	f103 4384 	add.w	r3, r3, #1107296256	; 0x42000000
 8004108:	f503 2360 	add.w	r3, r3, #917504	; 0xe0000
 800410c:	601a      	str	r2, [r3, #0]
 800410e:	4770      	bx	lr
 8004110:	fa90 f0a0 	rbit	r0, r0
 8004114:	2201      	movs	r2, #1
 8004116:	fab0 f080 	clz	r0, r0
 800411a:	4b02      	ldr	r3, [pc, #8]	; (0x8004124)
 800411c:	f843 2020 	str.w	r2, [r3, r0, lsl #2]
 8004120:	4770      	bx	lr
 8004122:	bf00      	nop
 8004124:	0080      	lsls	r0, r0, #2
 8004126:	420e      	tst	r6, r1
 8004128:	fa90 f0a0 	rbit	r0, r0
 800412c:	2200      	movs	r2, #0
 800412e:	fab0 f080 	clz	r0, r0
 8004132:	4b02      	ldr	r3, [pc, #8]	; (0x800413c)
 8004134:	f843 2020 	str.w	r2, [r3, r0, lsl #2]
 8004138:	4770      	bx	lr
 800413a:	bf00      	nop
 800413c:	0080      	lsls	r0, r0, #2
 800413e:	420e      	tst	r6, r1
 8004140:	4a06      	ldr	r2, [pc, #24]	; (0x800415c)
 8004142:	2901      	cmp	r1, #1
 8004144:	6913      	ldr	r3, [r2, #16]
 8004146:	f023 0304 	bic.w	r3, r3, #4
 800414a:	6113      	str	r3, [r2, #16]
 800414c:	d101      	bne.n	0x8004152
 800414e:	bf30      	wfi
 8004150:	4770      	bx	lr
 8004152:	bf40      	sev
 8004154:	bf20      	wfe
 8004156:	bf20      	wfe
 8004158:	4770      	bx	lr
 800415a:	bf00      	nop
 800415c:	ed00 e000 	stc	0, cr14, [r0, #-0]
 8004160:	4a0f      	ldr	r2, [pc, #60]	; (0x80041a0)
 8004162:	b508      	push	{r3, lr}
 8004164:	6813      	ldr	r3, [r2, #0]
 8004166:	2901      	cmp	r1, #1
 8004168:	f023 0302 	bic.w	r3, r3, #2
 800416c:	6013      	str	r3, [r2, #0]
 800416e:	6813      	ldr	r3, [r2, #0]
 8004170:	f023 0301 	bic.w	r3, r3, #1
 8004174:	ea40 0003 	orr.w	r0, r0, r3
 8004178:	4b0a      	ldr	r3, [pc, #40]	; (0x80041a4)
 800417a:	6010      	str	r0, [r2, #0]
 800417c:	691a      	ldr	r2, [r3, #16]
 800417e:	f042 0204 	orr.w	r2, r2, #4
 8004182:	611a      	str	r2, [r3, #16]
 8004184:	d105      	bne.n	0x8004192
 8004186:	bf30      	wfi
 8004188:	691a      	ldr	r2, [r3, #16]
 800418a:	f022 0204 	bic.w	r2, r2, #4
 800418e:	611a      	str	r2, [r3, #16]
 8004190:	bd08      	pop	{r3, pc}
 8004192:	bf40      	sev
 8004194:	f7ff ff40 	bl	0x8004018
 8004198:	f7ff ff3e 	bl	0x8004018
 800419c:	e7f4      	b.n	0x8004188
 800419e:	bf00      	nop
 80041a0:	7000      	strb	r0, [r0, #0]
 80041a2:	4000      	ands	r0, r0
 80041a4:	ed00 e000 	stc	0, cr14, [r0, #-0]
 80041a8:	4a05      	ldr	r2, [pc, #20]	; (0x80041c0)
 80041aa:	6813      	ldr	r3, [r2, #0]
 80041ac:	f043 0302 	orr.w	r3, r3, #2
 80041b0:	6013      	str	r3, [r2, #0]
 80041b2:	4a04      	ldr	r2, [pc, #16]	; (0x80041c4)
 80041b4:	6913      	ldr	r3, [r2, #16]
 80041b6:	f043 0304 	orr.w	r3, r3, #4
 80041ba:	6113      	str	r3, [r2, #16]
 80041bc:	bf30      	wfi
 80041be:	4770      	bx	lr
 80041c0:	7000      	strb	r0, [r0, #0]
 80041c2:	4000      	ands	r0, r0
 80041c4:	ed00 e000 	stc	0, cr14, [r0, #-0]
 80041c8:	4a02      	ldr	r2, [pc, #8]	; (0x80041d4)
 80041ca:	6913      	ldr	r3, [r2, #16]
 80041cc:	f043 0302 	orr.w	r3, r3, #2
 80041d0:	6113      	str	r3, [r2, #16]
 80041d2:	4770      	bx	lr
 80041d4:	ed00 e000 	stc	0, cr14, [r0, #-0]
 80041d8:	4a02      	ldr	r2, [pc, #8]	; (0x80041e4)
 80041da:	6913      	ldr	r3, [r2, #16]
 80041dc:	f023 0302 	bic.w	r3, r3, #2
 80041e0:	6113      	str	r3, [r2, #16]
 80041e2:	4770      	bx	lr
 80041e4:	ed00 e000 	stc	0, cr14, [r0, #-0]
 80041e8:	4a02      	ldr	r2, [pc, #8]	; (0x80041f4)
 80041ea:	6913      	ldr	r3, [r2, #16]
 80041ec:	f043 0310 	orr.w	r3, r3, #16
 80041f0:	6113      	str	r3, [r2, #16]
 80041f2:	4770      	bx	lr
 80041f4:	ed00 e000 	stc	0, cr14, [r0, #-0]
 80041f8:	4a02      	ldr	r2, [pc, #8]	; (0x8004204)
 80041fa:	6913      	ldr	r3, [r2, #16]
 80041fc:	f023 0310 	bic.w	r3, r3, #16
 8004200:	6113      	str	r3, [r2, #16]
 8004202:	4770      	bx	lr
 8004204:	ed00 e000 	stc	0, cr14, [r0, #-0]
 8004208:	4770      	bx	lr
 800420a:	0000      	movs	r0, r0
 800420c:	b510      	push	{r4, lr}
 800420e:	4c05      	ldr	r4, [pc, #20]	; (0x8004224)
 8004210:	6963      	ldr	r3, [r4, #20]
 8004212:	03db      	lsls	r3, r3, #15
 8004214:	d504      	bpl.n	0x8004220
 8004216:	f7ff fff7 	bl	0x8004208
 800421a:	f44f 3380 	mov.w	r3, #65536	; 0x10000
 800421e:	6163      	str	r3, [r4, #20]
 8004220:	bd10      	pop	{r4, pc}
 8004222:	bf00      	nop
 8004224:	0400      	lsls	r0, r0, #16
 8004226:	4001      	ands	r1, r0
 8004228:	b510      	push	{r4, lr}
 800422a:	2400      	movs	r4, #0
 800422c:	4b10      	ldr	r3, [pc, #64]	; (0x8004270)
 800422e:	21f8      	movs	r1, #248	; 0xf8
 8004230:	685a      	ldr	r2, [r3, #4]
 8004232:	f022 0203 	bic.w	r2, r2, #3
 8004236:	605a      	str	r2, [r3, #4]
 8004238:	681a      	ldr	r2, [r3, #0]
 800423a:	f022 7284 	bic.w	r2, r2, #17301504	; 0x1080000
 800423e:	f422 3280 	bic.w	r2, r2, #65536	; 0x10000
 8004242:	601a      	str	r2, [r3, #0]
 8004244:	681a      	ldr	r2, [r3, #0]
 8004246:	f422 2280 	bic.w	r2, r2, #262144	; 0x40000
 800424a:	601a      	str	r2, [r3, #0]
 800424c:	605c      	str	r4, [r3, #4]
 800424e:	681a      	ldr	r2, [r3, #0]
 8004250:	fa91 f1a1 	rbit	r1, r1
 8004254:	2010      	movs	r0, #16
 8004256:	fab1 f181 	clz	r1, r1
 800425a:	f022 02f8 	bic.w	r2, r2, #248	; 0xf8
 800425e:	fa00 f101 	lsl.w	r1, r0, r1
 8004262:	430a      	orrs	r2, r1
 8004264:	601a      	str	r2, [r3, #0]
 8004266:	609c      	str	r4, [r3, #8]
 8004268:	4a02      	ldr	r2, [pc, #8]	; (0x8004274)
 800426a:	4b03      	ldr	r3, [pc, #12]	; (0x8004278)
 800426c:	601a      	str	r2, [r3, #0]
 800426e:	bd10      	pop	{r4, pc}
 8004270:	1000      	asrs	r0, r0, #32
 8004272:	4002      	ands	r2, r0
 8004274:	1200      	asrs	r0, r0, #8
 8004276:	007a      	lsls	r2, r7, #1
 8004278:	0000      	movs	r0, r0
 800427a:	2000      	movs	r0, #0
 800427c:	6803      	ldr	r3, [r0, #0]
 800427e:	e92d 43f7 	stmdb	sp!, {r0, r1, r2, r4, r5, r6, r7, r8, r9, lr}
 8004282:	07de      	lsls	r6, r3, #31
 8004284:	4605      	mov	r5, r0
 8004286:	d434      	bmi.n	0x80042f2
 8004288:	682b      	ldr	r3, [r5, #0]
 800428a:	079c      	lsls	r4, r3, #30
 800428c:	f100 80a7 	bmi.w	0x80043de
 8004290:	682b      	ldr	r3, [r5, #0]
 8004292:	071a      	lsls	r2, r3, #28
 8004294:	d523      	bpl.n	0x80042de
 8004296:	69aa      	ldr	r2, [r5, #24]
 8004298:	4cbe      	ldr	r4, [pc, #760]	; (0x8004594)
 800429a:	2301      	movs	r3, #1
 800429c:	49be      	ldr	r1, [pc, #760]	; (0x8004598)
 800429e:	2a00      	cmp	r2, #0
 80042a0:	f000 8115 	beq.w	0x80044ce
 80042a4:	fa93 f2a3 	rbit	r2, r3
 80042a8:	fab2 f282 	clz	r2, r2
 80042ac:	f841 3022 	str.w	r3, [r1, r2, lsl #2]
 80042b0:	f7fe f868 	bl	0x8002384
 80042b4:	2602      	movs	r6, #2
 80042b6:	4607      	mov	r7, r0
 80042b8:	fa96 f3a6 	rbit	r3, r6
 80042bc:	fa96 f3a6 	rbit	r3, r6
 80042c0:	6a62      	ldr	r2, [r4, #36]	; 0x24
 80042c2:	fa96 f3a6 	rbit	r3, r6
 80042c6:	fab3 f383 	clz	r3, r3
 80042ca:	f003 031f 	and.w	r3, r3, #31
 80042ce:	fa22 f303 	lsr.w	r3, r2, r3
 80042d2:	07db      	lsls	r3, r3, #31
 80042d4:	f140 80f4 	bpl.w	0x80044c0
 80042d8:	2001      	movs	r0, #1
 80042da:	f7fe f859 	bl	0x8002390
 80042de:	682b      	ldr	r3, [r5, #0]
 80042e0:	0759      	lsls	r1, r3, #29
 80042e2:	f100 8114 	bmi.w	0x800450e
 80042e6:	69ea      	ldr	r2, [r5, #28]
 80042e8:	2a00      	cmp	r2, #0
 80042ea:	f040 8193 	bne.w	0x8004614
 80042ee:	2000      	movs	r0, #0
 80042f0:	e020      	b.n	0x8004334
 80042f2:	4ca8      	ldr	r4, [pc, #672]	; (0x8004594)
 80042f4:	6863      	ldr	r3, [r4, #4]
 80042f6:	f003 030c 	and.w	r3, r3, #12
 80042fa:	2b04      	cmp	r3, #4
 80042fc:	d007      	beq.n	0x800430e
 80042fe:	6863      	ldr	r3, [r4, #4]
 8004300:	f003 030c 	and.w	r3, r3, #12
 8004304:	2b08      	cmp	r3, #8
 8004306:	d118      	bne.n	0x800433a
 8004308:	6863      	ldr	r3, [r4, #4]
 800430a:	03d8      	lsls	r0, r3, #15
 800430c:	d515      	bpl.n	0x800433a
 800430e:	f44f 3300 	mov.w	r3, #131072	; 0x20000
 8004312:	fa93 f2a3 	rbit	r2, r3
 8004316:	6822      	ldr	r2, [r4, #0]
 8004318:	fa93 f3a3 	rbit	r3, r3
 800431c:	fab3 f383 	clz	r3, r3
 8004320:	f003 031f 	and.w	r3, r3, #31
 8004324:	fa22 f303 	lsr.w	r3, r2, r3
 8004328:	07d9      	lsls	r1, r3, #31
 800432a:	d5ad      	bpl.n	0x8004288
 800432c:	686b      	ldr	r3, [r5, #4]
 800432e:	2b00      	cmp	r3, #0
 8004330:	d1aa      	bne.n	0x8004288
 8004332:	2001      	movs	r0, #1
 8004334:	b003      	add	sp, #12
 8004336:	e8bd 83f0 	ldmia.w	sp!, {r4, r5, r6, r7, r8, r9, pc}
 800433a:	686b      	ldr	r3, [r5, #4]
 800433c:	f5b3 3f80 	cmp.w	r3, #65536	; 0x10000
 8004340:	d11c      	bne.n	0x800437c
 8004342:	6823      	ldr	r3, [r4, #0]
 8004344:	f443 3380 	orr.w	r3, r3, #65536	; 0x10000
 8004348:	6023      	str	r3, [r4, #0]
 800434a:	f7fe f81b 	bl	0x8002384
 800434e:	f44f 3600 	mov.w	r6, #131072	; 0x20000
 8004352:	4607      	mov	r7, r0
 8004354:	fa96 f3a6 	rbit	r3, r6
 8004358:	6822      	ldr	r2, [r4, #0]
 800435a:	fa96 f3a6 	rbit	r3, r6
 800435e:	fab3 f383 	clz	r3, r3
 8004362:	f003 031f 	and.w	r3, r3, #31
 8004366:	fa22 f303 	lsr.w	r3, r2, r3
 800436a:	07da      	lsls	r2, r3, #31
 800436c:	d48c      	bmi.n	0x8004288
 800436e:	f7fe f809 	bl	0x8002384
 8004372:	1bc0      	subs	r0, r0, r7
 8004374:	2864      	cmp	r0, #100	; 0x64
 8004376:	d9ed      	bls.n	0x8004354
 8004378:	2003      	movs	r0, #3
 800437a:	e7db      	b.n	0x8004334
 800437c:	bb03      	cbnz	r3, 0x80043c0
 800437e:	6823      	ldr	r3, [r4, #0]
 8004380:	f44f 3600 	mov.w	r6, #131072	; 0x20000
 8004384:	f423 3380 	bic.w	r3, r3, #65536	; 0x10000
 8004388:	6023      	str	r3, [r4, #0]
 800438a:	6823      	ldr	r3, [r4, #0]
 800438c:	f423 2380 	bic.w	r3, r3, #262144	; 0x40000
 8004390:	6023      	str	r3, [r4, #0]
 8004392:	f7fd fff7 	bl	0x8002384
 8004396:	4607      	mov	r7, r0
 8004398:	fa96 f3a6 	rbit	r3, r6
 800439c:	6822      	ldr	r2, [r4, #0]
 800439e:	fa96 f3a6 	rbit	r3, r6
 80043a2:	fab3 f383 	clz	r3, r3
 80043a6:	f003 031f 	and.w	r3, r3, #31
 80043aa:	fa22 f303 	lsr.w	r3, r2, r3
 80043ae:	07db      	lsls	r3, r3, #31
 80043b0:	f57f af6a 	bpl.w	0x8004288
 80043b4:	f7fd ffe6 	bl	0x8002384
 80043b8:	1bc0      	subs	r0, r0, r7
 80043ba:	2864      	cmp	r0, #100	; 0x64
 80043bc:	d9ec      	bls.n	0x8004398
 80043be:	e7db      	b.n	0x8004378
 80043c0:	f5b3 2fa0 	cmp.w	r3, #327680	; 0x50000
 80043c4:	6823      	ldr	r3, [r4, #0]
 80043c6:	d103      	bne.n	0x80043d0
 80043c8:	f443 2380 	orr.w	r3, r3, #262144	; 0x40000
 80043cc:	6023      	str	r3, [r4, #0]
 80043ce:	e7b8      	b.n	0x8004342
 80043d0:	f423 3380 	bic.w	r3, r3, #65536	; 0x10000
 80043d4:	6023      	str	r3, [r4, #0]
 80043d6:	6823      	ldr	r3, [r4, #0]
 80043d8:	f423 2380 	bic.w	r3, r3, #262144	; 0x40000
 80043dc:	e7b4      	b.n	0x8004348
 80043de:	4c6d      	ldr	r4, [pc, #436]	; (0x8004594)
 80043e0:	6863      	ldr	r3, [r4, #4]
 80043e2:	f013 0f0c 	tst.w	r3, #12
 80043e6:	d007      	beq.n	0x80043f8
 80043e8:	6863      	ldr	r3, [r4, #4]
 80043ea:	f003 030c 	and.w	r3, r3, #12
 80043ee:	2b08      	cmp	r3, #8
 80043f0:	d120      	bne.n	0x8004434
 80043f2:	6863      	ldr	r3, [r4, #4]
 80043f4:	03df      	lsls	r7, r3, #15
 80043f6:	d41d      	bmi.n	0x8004434
 80043f8:	2302      	movs	r3, #2
 80043fa:	fa93 f2a3 	rbit	r2, r3
 80043fe:	6822      	ldr	r2, [r4, #0]
 8004400:	fa93 f3a3 	rbit	r3, r3
 8004404:	fab3 f383 	clz	r3, r3
 8004408:	f003 031f 	and.w	r3, r3, #31
 800440c:	fa22 f303 	lsr.w	r3, r2, r3
 8004410:	07de      	lsls	r6, r3, #31
 8004412:	d502      	bpl.n	0x800441a
 8004414:	692b      	ldr	r3, [r5, #16]
 8004416:	2b01      	cmp	r3, #1
 8004418:	d18b      	bne.n	0x8004332
 800441a:	6821      	ldr	r1, [r4, #0]
 800441c:	23f8      	movs	r3, #248	; 0xf8
 800441e:	fa93 f3a3 	rbit	r3, r3
 8004422:	fab3 f283 	clz	r2, r3
 8004426:	696b      	ldr	r3, [r5, #20]
 8004428:	4093      	lsls	r3, r2
 800442a:	f021 02f8 	bic.w	r2, r1, #248	; 0xf8
 800442e:	4313      	orrs	r3, r2
 8004430:	6023      	str	r3, [r4, #0]
 8004432:	e72d      	b.n	0x8004290
 8004434:	692a      	ldr	r2, [r5, #16]
 8004436:	2301      	movs	r3, #1
 8004438:	b302      	cbz	r2, 0x800447c
 800443a:	fa93 f2a3 	rbit	r2, r3
 800443e:	fab2 f282 	clz	r2, r2
 8004442:	0092      	lsls	r2, r2, #2
 8004444:	f102 4284 	add.w	r2, r2, #1107296256	; 0x42000000
 8004448:	f502 0284 	add.w	r2, r2, #4325376	; 0x420000
 800444c:	6013      	str	r3, [r2, #0]
 800444e:	f7fd ff99 	bl	0x8002384
 8004452:	2602      	movs	r6, #2
 8004454:	4607      	mov	r7, r0
 8004456:	fa96 f3a6 	rbit	r3, r6
 800445a:	6822      	ldr	r2, [r4, #0]
 800445c:	fa96 f3a6 	rbit	r3, r6
 8004460:	fab3 f383 	clz	r3, r3
 8004464:	f003 031f 	and.w	r3, r3, #31
 8004468:	fa22 f303 	lsr.w	r3, r2, r3
 800446c:	07d8      	lsls	r0, r3, #31
 800446e:	d4d4      	bmi.n	0x800441a
 8004470:	f7fd ff88 	bl	0x8002384
 8004474:	1bc0      	subs	r0, r0, r7
 8004476:	2802      	cmp	r0, #2
 8004478:	d9ed      	bls.n	0x8004456
 800447a:	e77d      	b.n	0x8004378
 800447c:	fa93 f3a3 	rbit	r3, r3
 8004480:	fab3 f383 	clz	r3, r3
 8004484:	009b      	lsls	r3, r3, #2
 8004486:	f103 4384 	add.w	r3, r3, #1107296256	; 0x42000000
 800448a:	f503 0384 	add.w	r3, r3, #4325376	; 0x420000
 800448e:	601a      	str	r2, [r3, #0]
 8004490:	f7fd ff78 	bl	0x8002384
 8004494:	2602      	movs	r6, #2
 8004496:	4607      	mov	r7, r0
 8004498:	fa96 f3a6 	rbit	r3, r6
 800449c:	6822      	ldr	r2, [r4, #0]
 800449e:	fa96 f3a6 	rbit	r3, r6
 80044a2:	fab3 f383 	clz	r3, r3
 80044a6:	f003 031f 	and.w	r3, r3, #31
 80044aa:	fa22 f303 	lsr.w	r3, r2, r3
 80044ae:	07d9      	lsls	r1, r3, #31
 80044b0:	f57f aeee 	bpl.w	0x8004290
 80044b4:	f7fd ff66 	bl	0x8002384
 80044b8:	1bc0      	subs	r0, r0, r7
 80044ba:	2802      	cmp	r0, #2
 80044bc:	d9ec      	bls.n	0x8004498
 80044be:	e75b      	b.n	0x8004378
 80044c0:	f7fd ff60 	bl	0x8002384
 80044c4:	1bc0      	subs	r0, r0, r7
 80044c6:	2802      	cmp	r0, #2
 80044c8:	f67f aef6 	bls.w	0x80042b8
 80044cc:	e754      	b.n	0x8004378
 80044ce:	fa93 f3a3 	rbit	r3, r3
 80044d2:	fab3 f383 	clz	r3, r3
 80044d6:	f841 2023 	str.w	r2, [r1, r3, lsl #2]
 80044da:	f7fd ff53 	bl	0x8002384
 80044de:	2602      	movs	r6, #2
 80044e0:	4607      	mov	r7, r0
 80044e2:	fa96 f3a6 	rbit	r3, r6
 80044e6:	fa96 f3a6 	rbit	r3, r6
 80044ea:	6a62      	ldr	r2, [r4, #36]	; 0x24
 80044ec:	fa96 f3a6 	rbit	r3, r6
 80044f0:	fab3 f383 	clz	r3, r3
 80044f4:	f003 031f 	and.w	r3, r3, #31
 80044f8:	fa22 f303 	lsr.w	r3, r2, r3
 80044fc:	07d8      	lsls	r0, r3, #31
 80044fe:	f57f aeee 	bpl.w	0x80042de
 8004502:	f7fd ff3f 	bl	0x8002384
 8004506:	1bc0      	subs	r0, r0, r7
 8004508:	2802      	cmp	r0, #2
 800450a:	d9ea      	bls.n	0x80044e2
 800450c:	e734      	b.n	0x8004378
 800450e:	4c21      	ldr	r4, [pc, #132]	; (0x8004594)
 8004510:	4e22      	ldr	r6, [pc, #136]	; (0x800459c)
 8004512:	69e3      	ldr	r3, [r4, #28]
 8004514:	f043 5380 	orr.w	r3, r3, #268435456	; 0x10000000
 8004518:	61e3      	str	r3, [r4, #28]
 800451a:	69e3      	ldr	r3, [r4, #28]
 800451c:	f003 5380 	and.w	r3, r3, #268435456	; 0x10000000
 8004520:	9301      	str	r3, [sp, #4]
 8004522:	9b01      	ldr	r3, [sp, #4]
 8004524:	6833      	ldr	r3, [r6, #0]
 8004526:	f443 7380 	orr.w	r3, r3, #256	; 0x100
 800452a:	6033      	str	r3, [r6, #0]
 800452c:	f7fd ff2a 	bl	0x8002384
 8004530:	4607      	mov	r7, r0
 8004532:	6833      	ldr	r3, [r6, #0]
 8004534:	05da      	lsls	r2, r3, #23
 8004536:	d526      	bpl.n	0x8004586
 8004538:	68eb      	ldr	r3, [r5, #12]
 800453a:	2b01      	cmp	r3, #1
 800453c:	d130      	bne.n	0x80045a0
 800453e:	6a23      	ldr	r3, [r4, #32]
 8004540:	f043 0301 	orr.w	r3, r3, #1
 8004544:	6223      	str	r3, [r4, #32]
 8004546:	f7fd ff1d 	bl	0x8002384
 800454a:	2602      	movs	r6, #2
 800454c:	4681      	mov	r9, r0
 800454e:	46b0      	mov	r8, r6
 8004550:	f241 3788 	movw	r7, #5000	; 0x1388
 8004554:	fa96 f3a6 	rbit	r3, r6
 8004558:	fa96 f3a6 	rbit	r3, r6
 800455c:	2b00      	cmp	r3, #0
 800455e:	d055      	beq.n	0x800460c
 8004560:	6a22      	ldr	r2, [r4, #32]
 8004562:	fa98 f3a8 	rbit	r3, r8
 8004566:	fab3 f383 	clz	r3, r3
 800456a:	f003 031f 	and.w	r3, r3, #31
 800456e:	fa22 f303 	lsr.w	r3, r2, r3
 8004572:	07db      	lsls	r3, r3, #31
 8004574:	f53f aeb7 	bmi.w	0x80042e6
 8004578:	f7fd ff04 	bl	0x8002384
 800457c:	eba0 0009 	sub.w	r0, r0, r9
 8004580:	42b8      	cmp	r0, r7
 8004582:	d9e7      	bls.n	0x8004554
 8004584:	e6f8      	b.n	0x8004378
 8004586:	f7fd fefd 	bl	0x8002384
 800458a:	1bc0      	subs	r0, r0, r7
 800458c:	2864      	cmp	r0, #100	; 0x64
 800458e:	d9d0      	bls.n	0x8004532
 8004590:	e6f2      	b.n	0x8004378
 8004592:	bf00      	nop
 8004594:	1000      	asrs	r0, r0, #32
 8004596:	4002      	ands	r2, r0
 8004598:	0480      	lsls	r0, r0, #18
 800459a:	4242      	negs	r2, r0
 800459c:	7000      	strb	r0, [r0, #0]
 800459e:	4000      	ands	r0, r0
 80045a0:	bb33      	cbnz	r3, 0x80045f0
 80045a2:	6a23      	ldr	r3, [r4, #32]
 80045a4:	2602      	movs	r6, #2
 80045a6:	f023 0301 	bic.w	r3, r3, #1
 80045aa:	6223      	str	r3, [r4, #32]
 80045ac:	6a23      	ldr	r3, [r4, #32]
 80045ae:	4637      	mov	r7, r6
 80045b0:	f023 0304 	bic.w	r3, r3, #4
 80045b4:	6223      	str	r3, [r4, #32]
 80045b6:	f7fd fee5 	bl	0x8002384
 80045ba:	f241 3988 	movw	r9, #5000	; 0x1388
 80045be:	4680      	mov	r8, r0
 80045c0:	fa96 f3a6 	rbit	r3, r6
 80045c4:	fa96 f3a6 	rbit	r3, r6
 80045c8:	b313      	cbz	r3, 0x8004610
 80045ca:	6a22      	ldr	r2, [r4, #32]
 80045cc:	fa97 f3a7 	rbit	r3, r7
 80045d0:	fab3 f383 	clz	r3, r3
 80045d4:	f003 031f 	and.w	r3, r3, #31
 80045d8:	fa22 f303 	lsr.w	r3, r2, r3
 80045dc:	07d8      	lsls	r0, r3, #31
 80045de:	f57f ae82 	bpl.w	0x80042e6
 80045e2:	f7fd fecf 	bl	0x8002384
 80045e6:	eba0 0008 	sub.w	r0, r0, r8
 80045ea:	4548      	cmp	r0, r9
 80045ec:	d9e8      	bls.n	0x80045c0
 80045ee:	e6c3      	b.n	0x8004378
 80045f0:	2b05      	cmp	r3, #5
 80045f2:	6a23      	ldr	r3, [r4, #32]
 80045f4:	d103      	bne.n	0x80045fe
 80045f6:	f043 0304 	orr.w	r3, r3, #4
 80045fa:	6223      	str	r3, [r4, #32]
 80045fc:	e79f      	b.n	0x800453e
 80045fe:	f023 0301 	bic.w	r3, r3, #1
 8004602:	6223      	str	r3, [r4, #32]
 8004604:	6a23      	ldr	r3, [r4, #32]
 8004606:	f023 0304 	bic.w	r3, r3, #4
 800460a:	e79b      	b.n	0x8004544
 800460c:	6a62      	ldr	r2, [r4, #36]	; 0x24
 800460e:	e7a8      	b.n	0x8004562
 8004610:	6a62      	ldr	r2, [r4, #36]	; 0x24
 8004612:	e7db      	b.n	0x80045cc
 8004614:	4c44      	ldr	r4, [pc, #272]	; (0x8004728)
 8004616:	6863      	ldr	r3, [r4, #4]
 8004618:	f003 030c 	and.w	r3, r3, #12
 800461c:	2b08      	cmp	r3, #8
 800461e:	f43f ae88 	beq.w	0x8004332
 8004622:	2a02      	cmp	r2, #2
 8004624:	f04f 7380 	mov.w	r3, #16777216	; 0x1000000
 8004628:	d159      	bne.n	0x80046de
 800462a:	fa93 f3a3 	rbit	r3, r3
 800462e:	fab3 f383 	clz	r3, r3
 8004632:	2200      	movs	r2, #0
 8004634:	009b      	lsls	r3, r3, #2
 8004636:	f103 4384 	add.w	r3, r3, #1107296256	; 0x42000000
 800463a:	f503 0384 	add.w	r3, r3, #4325376	; 0x420000
 800463e:	601a      	str	r2, [r3, #0]
 8004640:	f7fd fea0 	bl	0x8002384
 8004644:	f04f 7600 	mov.w	r6, #33554432	; 0x2000000
 8004648:	4607      	mov	r7, r0
 800464a:	fa96 f3a6 	rbit	r3, r6
 800464e:	6822      	ldr	r2, [r4, #0]
 8004650:	fa96 f3a6 	rbit	r3, r6
 8004654:	fab3 f383 	clz	r3, r3
 8004658:	f003 031f 	and.w	r3, r3, #31
 800465c:	fa22 f303 	lsr.w	r3, r2, r3
 8004660:	07d9      	lsls	r1, r3, #31
 8004662:	d436      	bmi.n	0x80046d2
 8004664:	6a2b      	ldr	r3, [r5, #32]
 8004666:	f5b3 3f80 	cmp.w	r3, #65536	; 0x10000
 800466a:	d105      	bne.n	0x8004678
 800466c:	6862      	ldr	r2, [r4, #4]
 800466e:	68a9      	ldr	r1, [r5, #8]
 8004670:	f422 3200 	bic.w	r2, r2, #131072	; 0x20000
 8004674:	430a      	orrs	r2, r1
 8004676:	6062      	str	r2, [r4, #4]
 8004678:	6862      	ldr	r2, [r4, #4]
 800467a:	6a69      	ldr	r1, [r5, #36]	; 0x24
 800467c:	f422 1274 	bic.w	r2, r2, #3997696	; 0x3d0000
 8004680:	430b      	orrs	r3, r1
 8004682:	4313      	orrs	r3, r2
 8004684:	6063      	str	r3, [r4, #4]
 8004686:	f04f 7380 	mov.w	r3, #16777216	; 0x1000000
 800468a:	fa93 f3a3 	rbit	r3, r3
 800468e:	fab3 f383 	clz	r3, r3
 8004692:	2201      	movs	r2, #1
 8004694:	009b      	lsls	r3, r3, #2
 8004696:	f103 4384 	add.w	r3, r3, #1107296256	; 0x42000000
 800469a:	f503 0384 	add.w	r3, r3, #4325376	; 0x420000
 800469e:	601a      	str	r2, [r3, #0]
 80046a0:	f7fd fe70 	bl	0x8002384
 80046a4:	f04f 7500 	mov.w	r5, #33554432	; 0x2000000
 80046a8:	4606      	mov	r6, r0
 80046aa:	fa95 f3a5 	rbit	r3, r5
 80046ae:	6822      	ldr	r2, [r4, #0]
 80046b0:	fa95 f3a5 	rbit	r3, r5
 80046b4:	fab3 f383 	clz	r3, r3
 80046b8:	f003 031f 	and.w	r3, r3, #31
 80046bc:	fa22 f303 	lsr.w	r3, r2, r3
 80046c0:	07da      	lsls	r2, r3, #31
 80046c2:	f53f ae14 	bmi.w	0x80042ee
 80046c6:	f7fd fe5d 	bl	0x8002384
 80046ca:	1b80      	subs	r0, r0, r6
 80046cc:	2802      	cmp	r0, #2
 80046ce:	d9ec      	bls.n	0x80046aa
 80046d0:	e652      	b.n	0x8004378
 80046d2:	f7fd fe57 	bl	0x8002384
 80046d6:	1bc0      	subs	r0, r0, r7
 80046d8:	2802      	cmp	r0, #2
 80046da:	d9b6      	bls.n	0x800464a
 80046dc:	e64c      	b.n	0x8004378
 80046de:	fa93 f3a3 	rbit	r3, r3
 80046e2:	fab3 f383 	clz	r3, r3
 80046e6:	2200      	movs	r2, #0
 80046e8:	009b      	lsls	r3, r3, #2
 80046ea:	f103 4384 	add.w	r3, r3, #1107296256	; 0x42000000
 80046ee:	f503 0384 	add.w	r3, r3, #4325376	; 0x420000
 80046f2:	601a      	str	r2, [r3, #0]
 80046f4:	f7fd fe46 	bl	0x8002384
 80046f8:	f04f 7500 	mov.w	r5, #33554432	; 0x2000000
 80046fc:	4606      	mov	r6, r0
 80046fe:	fa95 f3a5 	rbit	r3, r5
 8004702:	6822      	ldr	r2, [r4, #0]
 8004704:	fa95 f3a5 	rbit	r3, r5
 8004708:	fab3 f383 	clz	r3, r3
 800470c:	f003 031f 	and.w	r3, r3, #31
 8004710:	fa22 f303 	lsr.w	r3, r2, r3
 8004714:	07db      	lsls	r3, r3, #31
 8004716:	f57f adea 	bpl.w	0x80042ee
 800471a:	f7fd fe33 	bl	0x8002384
 800471e:	1b80      	subs	r0, r0, r6
 8004720:	2802      	cmp	r0, #2
 8004722:	d9ec      	bls.n	0x80046fe
 8004724:	e628      	b.n	0x8004378
 8004726:	bf00      	nop
 8004728:	1000      	asrs	r0, r0, #32
 800472a:	4002      	ands	r2, r0
 800472c:	b530      	push	{r4, r5, lr}
 800472e:	b087      	sub	sp, #28
 8004730:	460d      	mov	r5, r1
 8004732:	2210      	movs	r2, #16
 8004734:	2100      	movs	r1, #0
 8004736:	a802      	add	r0, sp, #8
 8004738:	f001 fc76 	bl	0x8006028
 800473c:	2302      	movs	r3, #2
 800473e:	9303      	str	r3, [sp, #12]
 8004740:	2303      	movs	r3, #3
 8004742:	9305      	str	r3, [sp, #20]
 8004744:	f44f 7380 	mov.w	r3, #256	; 0x100
 8004748:	4c0a      	ldr	r4, [pc, #40]	; (0x8004774)
 800474a:	9302      	str	r3, [sp, #8]
 800474c:	69a3      	ldr	r3, [r4, #24]
 800474e:	a902      	add	r1, sp, #8
 8004750:	f043 0304 	orr.w	r3, r3, #4
 8004754:	61a3      	str	r3, [r4, #24]
 8004756:	69a3      	ldr	r3, [r4, #24]
 8004758:	4807      	ldr	r0, [pc, #28]	; (0x8004778)
 800475a:	f003 0304 	and.w	r3, r3, #4
 800475e:	9301      	str	r3, [sp, #4]
 8004760:	9b01      	ldr	r3, [sp, #4]
 8004762:	f7fe fe49 	bl	0x80033f8
 8004766:	6861      	ldr	r1, [r4, #4]
 8004768:	f021 61e0 	bic.w	r1, r1, #117440512	; 0x7000000
 800476c:	4329      	orrs	r1, r5
 800476e:	6061      	str	r1, [r4, #4]
 8004770:	b007      	add	sp, #28
 8004772:	bd30      	pop	{r4, r5, pc}
 8004774:	1000      	asrs	r0, r0, #32
 8004776:	4002      	ands	r2, r0
 8004778:	0800      	lsrs	r0, r0, #32
 800477a:	4001      	ands	r1, r0
 800477c:	f44f 2300 	mov.w	r3, #524288	; 0x80000
 8004780:	fa93 f3a3 	rbit	r3, r3
 8004784:	fab3 f383 	clz	r3, r3
 8004788:	2201      	movs	r2, #1
 800478a:	009b      	lsls	r3, r3, #2
 800478c:	f103 4384 	add.w	r3, r3, #1107296256	; 0x42000000
 8004790:	f503 0384 	add.w	r3, r3, #4325376	; 0x420000
 8004794:	601a      	str	r2, [r3, #0]
 8004796:	4770      	bx	lr
 8004798:	f44f 2300 	mov.w	r3, #524288	; 0x80000
 800479c:	fa93 f3a3 	rbit	r3, r3
 80047a0:	fab3 f383 	clz	r3, r3
 80047a4:	2200      	movs	r2, #0
 80047a6:	009b      	lsls	r3, r3, #2
 80047a8:	f103 4384 	add.w	r3, r3, #1107296256	; 0x42000000
 80047ac:	f503 0384 	add.w	r3, r3, #4325376	; 0x420000
 80047b0:	601a      	str	r2, [r3, #0]
 80047b2:	4770      	bx	lr
 80047b4:	b530      	push	{r4, r5, lr}
 80047b6:	4b20      	ldr	r3, [pc, #128]	; (0x8004838)
 80047b8:	b087      	sub	sp, #28
 80047ba:	ac02      	add	r4, sp, #8
 80047bc:	f103 0510 	add.w	r5, r3, #16
 80047c0:	4622      	mov	r2, r4
 80047c2:	6818      	ldr	r0, [r3, #0]
 80047c4:	6859      	ldr	r1, [r3, #4]
 80047c6:	3308      	adds	r3, #8
 80047c8:	c203      	stmia	r2!, {r0, r1}
 80047ca:	42ab      	cmp	r3, r5
 80047cc:	4614      	mov	r4, r2
 80047ce:	d1f7      	bne.n	0x80047c0
 80047d0:	2301      	movs	r3, #1
 80047d2:	f88d 3004 	strb.w	r3, [sp, #4]
 80047d6:	2302      	movs	r3, #2
 80047d8:	4c18      	ldr	r4, [pc, #96]	; (0x800483c)
 80047da:	f88d 3005 	strb.w	r3, [sp, #5]
 80047de:	6861      	ldr	r1, [r4, #4]
 80047e0:	f001 030c 	and.w	r3, r1, #12
 80047e4:	2b08      	cmp	r3, #8
 80047e6:	d124      	bne.n	0x8004832
 80047e8:	f44f 1370 	mov.w	r3, #3932160	; 0x3c0000
 80047ec:	fa93 f3a3 	rbit	r3, r3
 80047f0:	fab3 f283 	clz	r2, r3
 80047f4:	f401 1370 	and.w	r3, r1, #3932160	; 0x3c0000
 80047f8:	40d3      	lsrs	r3, r2
 80047fa:	aa06      	add	r2, sp, #24
 80047fc:	4413      	add	r3, r2
 80047fe:	f813 0c10 	ldrb.w	r0, [r3, #-16]
 8004802:	03cb      	lsls	r3, r1, #15
 8004804:	d513      	bpl.n	0x800482e
 8004806:	6863      	ldr	r3, [r4, #4]
 8004808:	f44f 3200 	mov.w	r2, #131072	; 0x20000
 800480c:	fa92 f2a2 	rbit	r2, r2
 8004810:	fab2 f282 	clz	r2, r2
 8004814:	f403 3300 	and.w	r3, r3, #131072	; 0x20000
 8004818:	40d3      	lsrs	r3, r2
 800481a:	aa06      	add	r2, sp, #24
 800481c:	4413      	add	r3, r2
 800481e:	f813 2c14 	ldrb.w	r2, [r3, #-20]
 8004822:	4b07      	ldr	r3, [pc, #28]	; (0x8004840)
 8004824:	fbb3 f3f2 	udiv	r3, r3, r2
 8004828:	4358      	muls	r0, r3
 800482a:	b007      	add	sp, #28
 800482c:	bd30      	pop	{r4, r5, pc}
 800482e:	4b05      	ldr	r3, [pc, #20]	; (0x8004844)
 8004830:	e7fa      	b.n	0x8004828
 8004832:	4803      	ldr	r0, [pc, #12]	; (0x8004840)
 8004834:	e7f9      	b.n	0x800482a
 8004836:	bf00      	nop
 8004838:	6038      	str	r0, [r7, #0]
 800483a:	0800      	lsrs	r0, r0, #32
 800483c:	1000      	asrs	r0, r0, #32
 800483e:	4002      	ands	r2, r0
 8004840:	1200      	asrs	r0, r0, #8
 8004842:	007a      	lsls	r2, r7, #1
 8004844:	0900      	lsrs	r0, r0, #4
 8004846:	003d      	movs	r5, r7
 8004848:	4a55      	ldr	r2, [pc, #340]	; (0x80049a0)
 800484a:	e92d 41f0 	stmdb	sp!, {r4, r5, r6, r7, r8, lr}
 800484e:	6813      	ldr	r3, [r2, #0]
 8004850:	4606      	mov	r6, r0
 8004852:	f003 0307 	and.w	r3, r3, #7
 8004856:	428b      	cmp	r3, r1
 8004858:	460d      	mov	r5, r1
 800485a:	d330      	bcc.n	0x80048be
 800485c:	6832      	ldr	r2, [r6, #0]
 800485e:	0794      	lsls	r4, r2, #30
 8004860:	d43a      	bmi.n	0x80048d8
 8004862:	07d0      	lsls	r0, r2, #31
 8004864:	d440      	bmi.n	0x80048e8
 8004866:	4a4e      	ldr	r2, [pc, #312]	; (0x80049a0)
 8004868:	6813      	ldr	r3, [r2, #0]
 800486a:	f003 0307 	and.w	r3, r3, #7
 800486e:	429d      	cmp	r5, r3
 8004870:	f0c0 8084 	bcc.w	0x800497c
 8004874:	6832      	ldr	r2, [r6, #0]
 8004876:	4c4b      	ldr	r4, [pc, #300]	; (0x80049a4)
 8004878:	f012 0f04 	tst.w	r2, #4
 800487c:	f040 8089 	bne.w	0x8004992
 8004880:	0713      	lsls	r3, r2, #28
 8004882:	d506      	bpl.n	0x8004892
 8004884:	6863      	ldr	r3, [r4, #4]
 8004886:	6932      	ldr	r2, [r6, #16]
 8004888:	f423 5360 	bic.w	r3, r3, #14336	; 0x3800
 800488c:	ea43 03c2 	orr.w	r3, r3, r2, lsl #3
 8004890:	6063      	str	r3, [r4, #4]
 8004892:	f7ff ff8f 	bl	0x80047b4
 8004896:	6863      	ldr	r3, [r4, #4]
 8004898:	22f0      	movs	r2, #240	; 0xf0
 800489a:	fa92 f2a2 	rbit	r2, r2
 800489e:	fab2 f282 	clz	r2, r2
 80048a2:	f003 03f0 	and.w	r3, r3, #240	; 0xf0
 80048a6:	40d3      	lsrs	r3, r2
 80048a8:	4a3f      	ldr	r2, [pc, #252]	; (0x80049a8)
 80048aa:	5cd3      	ldrb	r3, [r2, r3]
 80048ac:	40d8      	lsrs	r0, r3
 80048ae:	4b3f      	ldr	r3, [pc, #252]	; (0x80049ac)
 80048b0:	6018      	str	r0, [r3, #0]
 80048b2:	2000      	movs	r0, #0
 80048b4:	f7fd fd3a 	bl	0x800232c
 80048b8:	2000      	movs	r0, #0
 80048ba:	e8bd 81f0 	ldmia.w	sp!, {r4, r5, r6, r7, r8, pc}
 80048be:	6813      	ldr	r3, [r2, #0]
 80048c0:	f023 0307 	bic.w	r3, r3, #7
 80048c4:	430b      	orrs	r3, r1
 80048c6:	6013      	str	r3, [r2, #0]
 80048c8:	6813      	ldr	r3, [r2, #0]
 80048ca:	f003 0307 	and.w	r3, r3, #7
 80048ce:	4299      	cmp	r1, r3
 80048d0:	d0c4      	beq.n	0x800485c
 80048d2:	2001      	movs	r0, #1
 80048d4:	e8bd 81f0 	ldmia.w	sp!, {r4, r5, r6, r7, r8, pc}
 80048d8:	4932      	ldr	r1, [pc, #200]	; (0x80049a4)
 80048da:	68b0      	ldr	r0, [r6, #8]
 80048dc:	684b      	ldr	r3, [r1, #4]
 80048de:	f023 03f0 	bic.w	r3, r3, #240	; 0xf0
 80048e2:	4303      	orrs	r3, r0
 80048e4:	604b      	str	r3, [r1, #4]
 80048e6:	e7bc      	b.n	0x8004862
 80048e8:	6872      	ldr	r2, [r6, #4]
 80048ea:	4c2e      	ldr	r4, [pc, #184]	; (0x80049a4)
 80048ec:	2a01      	cmp	r2, #1
 80048ee:	d128      	bne.n	0x8004942
 80048f0:	f44f 3300 	mov.w	r3, #131072	; 0x20000
 80048f4:	fa93 f1a3 	rbit	r1, r3
 80048f8:	6821      	ldr	r1, [r4, #0]
 80048fa:	fa93 f3a3 	rbit	r3, r3
 80048fe:	fab3 f383 	clz	r3, r3
 8004902:	f003 031f 	and.w	r3, r3, #31
 8004906:	fa21 f303 	lsr.w	r3, r1, r3
 800490a:	07d9      	lsls	r1, r3, #31
 800490c:	d5e1      	bpl.n	0x80048d2
 800490e:	6863      	ldr	r3, [r4, #4]
 8004910:	f241 3888 	movw	r8, #5000	; 0x1388
 8004914:	f023 0303 	bic.w	r3, r3, #3
 8004918:	431a      	orrs	r2, r3
 800491a:	6062      	str	r2, [r4, #4]
 800491c:	f7fd fd32 	bl	0x8002384
 8004920:	6873      	ldr	r3, [r6, #4]
 8004922:	4607      	mov	r7, r0
 8004924:	2b01      	cmp	r3, #1
 8004926:	d112      	bne.n	0x800494e
 8004928:	6863      	ldr	r3, [r4, #4]
 800492a:	f003 030c 	and.w	r3, r3, #12
 800492e:	2b04      	cmp	r3, #4
 8004930:	d099      	beq.n	0x8004866
 8004932:	f7fd fd27 	bl	0x8002384
 8004936:	1bc0      	subs	r0, r0, r7
 8004938:	4540      	cmp	r0, r8
 800493a:	d9f5      	bls.n	0x8004928
 800493c:	2003      	movs	r0, #3
 800493e:	e8bd 81f0 	ldmia.w	sp!, {r4, r5, r6, r7, r8, pc}
 8004942:	2a02      	cmp	r2, #2
 8004944:	bf0c      	ite	eq
 8004946:	f04f 7300 	moveq.w	r3, #33554432	; 0x2000000
 800494a:	2302      	movne	r3, #2
 800494c:	e7d2      	b.n	0x80048f4
 800494e:	2b02      	cmp	r3, #2
 8004950:	d10f      	bne.n	0x8004972
 8004952:	6863      	ldr	r3, [r4, #4]
 8004954:	f003 030c 	and.w	r3, r3, #12
 8004958:	2b08      	cmp	r3, #8
 800495a:	d084      	beq.n	0x8004866
 800495c:	f7fd fd12 	bl	0x8002384
 8004960:	1bc0      	subs	r0, r0, r7
 8004962:	4540      	cmp	r0, r8
 8004964:	d9f5      	bls.n	0x8004952
 8004966:	e7e9      	b.n	0x800493c
 8004968:	f7fd fd0c 	bl	0x8002384
 800496c:	1bc0      	subs	r0, r0, r7
 800496e:	4540      	cmp	r0, r8
 8004970:	d8e4      	bhi.n	0x800493c
 8004972:	6863      	ldr	r3, [r4, #4]
 8004974:	f013 0f0c 	tst.w	r3, #12
 8004978:	d1f6      	bne.n	0x8004968
 800497a:	e774      	b.n	0x8004866
 800497c:	6813      	ldr	r3, [r2, #0]
 800497e:	f023 0307 	bic.w	r3, r3, #7
 8004982:	432b      	orrs	r3, r5
 8004984:	6013      	str	r3, [r2, #0]
 8004986:	6813      	ldr	r3, [r2, #0]
 8004988:	f003 0307 	and.w	r3, r3, #7
 800498c:	429d      	cmp	r5, r3
 800498e:	d1a0      	bne.n	0x80048d2
 8004990:	e770      	b.n	0x8004874
 8004992:	6863      	ldr	r3, [r4, #4]
 8004994:	68f1      	ldr	r1, [r6, #12]
 8004996:	f423 63e0 	bic.w	r3, r3, #1792	; 0x700
 800499a:	430b      	orrs	r3, r1
 800499c:	6063      	str	r3, [r4, #4]
 800499e:	e76f      	b.n	0x8004880
 80049a0:	2000      	movs	r0, #0
 80049a2:	4002      	ands	r2, r0
 80049a4:	1000      	asrs	r0, r0, #32
 80049a6:	4002      	ands	r2, r0
 80049a8:	6061      	str	r1, [r4, #4]
 80049aa:	0800      	lsrs	r0, r0, #32
 80049ac:	0000      	movs	r0, r0
 80049ae:	2000      	movs	r0, #0
 80049b0:	4b01      	ldr	r3, [pc, #4]	; (0x80049b8)
 80049b2:	6818      	ldr	r0, [r3, #0]
 80049b4:	4770      	bx	lr
 80049b6:	bf00      	nop
 80049b8:	0000      	movs	r0, r0
 80049ba:	2000      	movs	r0, #0
 80049bc:	4b08      	ldr	r3, [pc, #32]	; (0x80049e0)
 80049be:	f44f 62e0 	mov.w	r2, #1792	; 0x700
 80049c2:	685b      	ldr	r3, [r3, #4]
 80049c4:	fa92 f2a2 	rbit	r2, r2
 80049c8:	fab2 f282 	clz	r2, r2
 80049cc:	f403 63e0 	and.w	r3, r3, #1792	; 0x700
 80049d0:	40d3      	lsrs	r3, r2
 80049d2:	4a04      	ldr	r2, [pc, #16]	; (0x80049e4)
 80049d4:	5cd3      	ldrb	r3, [r2, r3]
 80049d6:	4a04      	ldr	r2, [pc, #16]	; (0x80049e8)
 80049d8:	6810      	ldr	r0, [r2, #0]
 80049da:	40d8      	lsrs	r0, r3
 80049dc:	4770      	bx	lr
 80049de:	bf00      	nop
 80049e0:	1000      	asrs	r0, r0, #32
 80049e2:	4002      	ands	r2, r0
 80049e4:	6071      	str	r1, [r6, #4]
 80049e6:	0800      	lsrs	r0, r0, #32
 80049e8:	0000      	movs	r0, r0
 80049ea:	2000      	movs	r0, #0
 80049ec:	4b08      	ldr	r3, [pc, #32]	; (0x8004a10)
 80049ee:	f44f 5260 	mov.w	r2, #14336	; 0x3800
 80049f2:	685b      	ldr	r3, [r3, #4]
 80049f4:	fa92 f2a2 	rbit	r2, r2
 80049f8:	fab2 f282 	clz	r2, r2
 80049fc:	f403 5360 	and.w	r3, r3, #14336	; 0x3800
 8004a00:	40d3      	lsrs	r3, r2
 8004a02:	4a04      	ldr	r2, [pc, #16]	; (0x8004a14)
 8004a04:	5cd3      	ldrb	r3, [r2, r3]
 8004a06:	4a04      	ldr	r2, [pc, #16]	; (0x8004a18)
 8004a08:	6810      	ldr	r0, [r2, #0]
 8004a0a:	40d8      	lsrs	r0, r3
 8004a0c:	4770      	bx	lr
 8004a0e:	bf00      	nop
 8004a10:	1000      	asrs	r0, r0, #32
 8004a12:	4002      	ands	r2, r0
 8004a14:	6071      	str	r1, [r6, #4]
 8004a16:	0800      	lsrs	r0, r0, #32
 8004a18:	0000      	movs	r0, r0
 8004a1a:	2000      	movs	r0, #0
 8004a1c:	230f      	movs	r3, #15
 8004a1e:	6003      	str	r3, [r0, #0]
 8004a20:	4b20      	ldr	r3, [pc, #128]	; (0x8004aa4)
 8004a22:	681a      	ldr	r2, [r3, #0]
 8004a24:	0352      	lsls	r2, r2, #13
 8004a26:	d530      	bpl.n	0x8004a8a
 8004a28:	f44f 22a0 	mov.w	r2, #327680	; 0x50000
 8004a2c:	6042      	str	r2, [r0, #4]
 8004a2e:	685a      	ldr	r2, [r3, #4]
 8004a30:	21f8      	movs	r1, #248	; 0xf8
 8004a32:	f402 3200 	and.w	r2, r2, #131072	; 0x20000
 8004a36:	6082      	str	r2, [r0, #8]
 8004a38:	681a      	ldr	r2, [r3, #0]
 8004a3a:	f012 0201 	ands.w	r2, r2, #1
 8004a3e:	bf18      	it	ne
 8004a40:	2201      	movne	r2, #1
 8004a42:	6102      	str	r2, [r0, #16]
 8004a44:	681a      	ldr	r2, [r3, #0]
 8004a46:	fa91 f1a1 	rbit	r1, r1
 8004a4a:	fab1 f181 	clz	r1, r1
 8004a4e:	f002 02f8 	and.w	r2, r2, #248	; 0xf8
 8004a52:	40ca      	lsrs	r2, r1
 8004a54:	6142      	str	r2, [r0, #20]
 8004a56:	6a1a      	ldr	r2, [r3, #32]
 8004a58:	0751      	lsls	r1, r2, #29
 8004a5a:	d51d      	bpl.n	0x8004a98
 8004a5c:	2205      	movs	r2, #5
 8004a5e:	60c2      	str	r2, [r0, #12]
 8004a60:	6a5a      	ldr	r2, [r3, #36]	; 0x24
 8004a62:	f012 0201 	ands.w	r2, r2, #1
 8004a66:	bf18      	it	ne
 8004a68:	2201      	movne	r2, #1
 8004a6a:	6182      	str	r2, [r0, #24]
 8004a6c:	681a      	ldr	r2, [r3, #0]
 8004a6e:	01d2      	lsls	r2, r2, #7
 8004a70:	bf4c      	ite	mi
 8004a72:	2202      	movmi	r2, #2
 8004a74:	2201      	movpl	r2, #1
 8004a76:	61c2      	str	r2, [r0, #28]
 8004a78:	685a      	ldr	r2, [r3, #4]
 8004a7a:	f402 3280 	and.w	r2, r2, #65536	; 0x10000
 8004a7e:	6202      	str	r2, [r0, #32]
 8004a80:	685b      	ldr	r3, [r3, #4]
 8004a82:	f403 1370 	and.w	r3, r3, #3932160	; 0x3c0000
 8004a86:	6243      	str	r3, [r0, #36]	; 0x24
 8004a88:	4770      	bx	lr
 8004a8a:	681a      	ldr	r2, [r3, #0]
 8004a8c:	f412 3280 	ands.w	r2, r2, #65536	; 0x10000
 8004a90:	bf18      	it	ne
 8004a92:	f44f 3280 	movne.w	r2, #65536	; 0x10000
 8004a96:	e7c9      	b.n	0x8004a2c
 8004a98:	6a1a      	ldr	r2, [r3, #32]
 8004a9a:	f012 0201 	ands.w	r2, r2, #1
 8004a9e:	bf18      	it	ne
 8004aa0:	2201      	movne	r2, #1
 8004aa2:	e7dc      	b.n	0x8004a5e
 8004aa4:	1000      	asrs	r0, r0, #32
 8004aa6:	4002      	ands	r2, r0
 8004aa8:	230f      	movs	r3, #15
 8004aaa:	6003      	str	r3, [r0, #0]
 8004aac:	4b0b      	ldr	r3, [pc, #44]	; (0x8004adc)
 8004aae:	685a      	ldr	r2, [r3, #4]
 8004ab0:	f002 0203 	and.w	r2, r2, #3
 8004ab4:	6042      	str	r2, [r0, #4]
 8004ab6:	685a      	ldr	r2, [r3, #4]
 8004ab8:	f002 02f0 	and.w	r2, r2, #240	; 0xf0
 8004abc:	6082      	str	r2, [r0, #8]
 8004abe:	685a      	ldr	r2, [r3, #4]
 8004ac0:	f402 62e0 	and.w	r2, r2, #1792	; 0x700
 8004ac4:	60c2      	str	r2, [r0, #12]
 8004ac6:	685b      	ldr	r3, [r3, #4]
 8004ac8:	08db      	lsrs	r3, r3, #3
 8004aca:	f403 63e0 	and.w	r3, r3, #1792	; 0x700
 8004ace:	6103      	str	r3, [r0, #16]
 8004ad0:	4b03      	ldr	r3, [pc, #12]	; (0x8004ae0)
 8004ad2:	681b      	ldr	r3, [r3, #0]
 8004ad4:	f003 0307 	and.w	r3, r3, #7
 8004ad8:	600b      	str	r3, [r1, #0]
 8004ada:	4770      	bx	lr
 8004adc:	1000      	asrs	r0, r0, #32
 8004ade:	4002      	ands	r2, r0
 8004ae0:	2000      	movs	r0, #0
 8004ae2:	4002      	ands	r2, r0
 8004ae4:	4770      	bx	lr
 8004ae6:	0000      	movs	r0, r0
 8004ae8:	b508      	push	{r3, lr}
 8004aea:	4b05      	ldr	r3, [pc, #20]	; (0x8004b00)
 8004aec:	689b      	ldr	r3, [r3, #8]
 8004aee:	061b      	lsls	r3, r3, #24
 8004af0:	d504      	bpl.n	0x8004afc
 8004af2:	f7ff fff7 	bl	0x8004ae4
 8004af6:	2280      	movs	r2, #128	; 0x80
 8004af8:	4b02      	ldr	r3, [pc, #8]	; (0x8004b04)
 8004afa:	701a      	strb	r2, [r3, #0]
 8004afc:	bd08      	pop	{r3, pc}
 8004afe:	bf00      	nop
 8004b00:	1000      	asrs	r0, r0, #32
 8004b02:	4002      	ands	r2, r0
 8004b04:	100a      	asrs	r2, r1, #32
 8004b06:	4002      	ands	r2, r0
 8004b08:	6803      	ldr	r3, [r0, #0]
 8004b0a:	e92d 43f7 	stmdb	sp!, {r0, r1, r2, r4, r5, r6, r7, r8, r9, lr}
 8004b0e:	07dc      	lsls	r4, r3, #31
 8004b10:	4605      	mov	r5, r0
 8004b12:	d51e      	bpl.n	0x8004b52
 8004b14:	4c3c      	ldr	r4, [pc, #240]	; (0x8004c08)
 8004b16:	4e3d      	ldr	r6, [pc, #244]	; (0x8004c0c)
 8004b18:	69e3      	ldr	r3, [r4, #28]
 8004b1a:	f043 5380 	orr.w	r3, r3, #268435456	; 0x10000000
 8004b1e:	61e3      	str	r3, [r4, #28]
 8004b20:	69e3      	ldr	r3, [r4, #28]
 8004b22:	f003 5380 	and.w	r3, r3, #268435456	; 0x10000000
 8004b26:	9301      	str	r3, [sp, #4]
 8004b28:	9b01      	ldr	r3, [sp, #4]
 8004b2a:	6833      	ldr	r3, [r6, #0]
 8004b2c:	f443 7380 	orr.w	r3, r3, #256	; 0x100
 8004b30:	6033      	str	r3, [r6, #0]
 8004b32:	f7fd fc27 	bl	0x8002384
 8004b36:	4607      	mov	r7, r0
 8004b38:	6833      	ldr	r3, [r6, #0]
 8004b3a:	05d8      	lsls	r0, r3, #23
 8004b3c:	d51f      	bpl.n	0x8004b7e
 8004b3e:	6a23      	ldr	r3, [r4, #32]
 8004b40:	f413 7340 	ands.w	r3, r3, #768	; 0x300
 8004b44:	d124      	bne.n	0x8004b90
 8004b46:	6a23      	ldr	r3, [r4, #32]
 8004b48:	686a      	ldr	r2, [r5, #4]
 8004b4a:	f423 7340 	bic.w	r3, r3, #768	; 0x300
 8004b4e:	4313      	orrs	r3, r2
 8004b50:	6223      	str	r3, [r4, #32]
 8004b52:	6828      	ldr	r0, [r5, #0]
 8004b54:	0783      	lsls	r3, r0, #30
 8004b56:	d506      	bpl.n	0x8004b66
 8004b58:	4a2b      	ldr	r2, [pc, #172]	; (0x8004c08)
 8004b5a:	68a9      	ldr	r1, [r5, #8]
 8004b5c:	6853      	ldr	r3, [r2, #4]
 8004b5e:	f423 4340 	bic.w	r3, r3, #49152	; 0xc000
 8004b62:	430b      	orrs	r3, r1
 8004b64:	6053      	str	r3, [r2, #4]
 8004b66:	f010 0010 	ands.w	r0, r0, #16
 8004b6a:	d00e      	beq.n	0x8004b8a
 8004b6c:	4a26      	ldr	r2, [pc, #152]	; (0x8004c08)
 8004b6e:	68e9      	ldr	r1, [r5, #12]
 8004b70:	6853      	ldr	r3, [r2, #4]
 8004b72:	2000      	movs	r0, #0
 8004b74:	f423 0380 	bic.w	r3, r3, #4194304	; 0x400000
 8004b78:	430b      	orrs	r3, r1
 8004b7a:	6053      	str	r3, [r2, #4]
 8004b7c:	e005      	b.n	0x8004b8a
 8004b7e:	f7fd fc01 	bl	0x8002384
 8004b82:	1bc0      	subs	r0, r0, r7
 8004b84:	2864      	cmp	r0, #100	; 0x64
 8004b86:	d9d7      	bls.n	0x8004b38
 8004b88:	2003      	movs	r0, #3
 8004b8a:	b003      	add	sp, #12
 8004b8c:	e8bd 83f0 	ldmia.w	sp!, {r4, r5, r6, r7, r8, r9, pc}
 8004b90:	686a      	ldr	r2, [r5, #4]
 8004b92:	f402 7240 	and.w	r2, r2, #768	; 0x300
 8004b96:	4293      	cmp	r3, r2
 8004b98:	d0d5      	beq.n	0x8004b46
 8004b9a:	6a21      	ldr	r1, [r4, #32]
 8004b9c:	f44f 3380 	mov.w	r3, #65536	; 0x10000
 8004ba0:	f421 7640 	bic.w	r6, r1, #768	; 0x300
 8004ba4:	fa93 f2a3 	rbit	r2, r3
 8004ba8:	2701      	movs	r7, #1
 8004baa:	fab2 f282 	clz	r2, r2
 8004bae:	4818      	ldr	r0, [pc, #96]	; (0x8004c10)
 8004bb0:	f840 7022 	str.w	r7, [r0, r2, lsl #2]
 8004bb4:	fa93 f3a3 	rbit	r3, r3
 8004bb8:	2200      	movs	r2, #0
 8004bba:	fab3 f383 	clz	r3, r3
 8004bbe:	07c9      	lsls	r1, r1, #31
 8004bc0:	f840 2023 	str.w	r2, [r0, r3, lsl #2]
 8004bc4:	6226      	str	r6, [r4, #32]
 8004bc6:	d5be      	bpl.n	0x8004b46
 8004bc8:	f7fd fbdc 	bl	0x8002384
 8004bcc:	2602      	movs	r6, #2
 8004bce:	4680      	mov	r8, r0
 8004bd0:	4637      	mov	r7, r6
 8004bd2:	f241 3988 	movw	r9, #5000	; 0x1388
 8004bd6:	fa96 f3a6 	rbit	r3, r6
 8004bda:	fa96 f3a6 	rbit	r3, r6
 8004bde:	b18b      	cbz	r3, 0x8004c04
 8004be0:	6a22      	ldr	r2, [r4, #32]
 8004be2:	fa97 f3a7 	rbit	r3, r7
 8004be6:	fab3 f383 	clz	r3, r3
 8004bea:	f003 031f 	and.w	r3, r3, #31
 8004bee:	fa22 f303 	lsr.w	r3, r2, r3
 8004bf2:	07da      	lsls	r2, r3, #31
 8004bf4:	d4a7      	bmi.n	0x8004b46
 8004bf6:	f7fd fbc5 	bl	0x8002384
 8004bfa:	eba0 0008 	sub.w	r0, r0, r8
 8004bfe:	4548      	cmp	r0, r9
 8004c00:	d9e9      	bls.n	0x8004bd6
 8004c02:	e7c1      	b.n	0x8004b88
 8004c04:	6a62      	ldr	r2, [r4, #36]	; 0x24
 8004c06:	e7ec      	b.n	0x8004be2
 8004c08:	1000      	asrs	r0, r0, #32
 8004c0a:	4002      	ands	r2, r0
 8004c0c:	7000      	strb	r0, [r0, #0]
 8004c0e:	4000      	ands	r0, r0
 8004c10:	0400      	lsls	r0, r0, #16
 8004c12:	4242      	negs	r2, r0
 8004c14:	4b07      	ldr	r3, [pc, #28]	; (0x8004c34)
 8004c16:	6a1a      	ldr	r2, [r3, #32]
 8004c18:	f402 7240 	and.w	r2, r2, #768	; 0x300
 8004c1c:	6042      	str	r2, [r0, #4]
 8004c1e:	685a      	ldr	r2, [r3, #4]
 8004c20:	f402 4240 	and.w	r2, r2, #49152	; 0xc000
 8004c24:	6082      	str	r2, [r0, #8]
 8004c26:	2213      	movs	r2, #19
 8004c28:	6002      	str	r2, [r0, #0]
 8004c2a:	685b      	ldr	r3, [r3, #4]
 8004c2c:	f403 0380 	and.w	r3, r3, #4194304	; 0x400000
 8004c30:	60c3      	str	r3, [r0, #12]
 8004c32:	4770      	bx	lr
 8004c34:	1000      	asrs	r0, r0, #32
 8004c36:	4002      	ands	r2, r0
 8004c38:	b570      	push	{r4, r5, r6, lr}
 8004c3a:	4604      	mov	r4, r0
 8004c3c:	4b3e      	ldr	r3, [pc, #248]	; (0x8004d38)
 8004c3e:	b086      	sub	sp, #24
 8004c40:	ad02      	add	r5, sp, #8
 8004c42:	f103 0610 	add.w	r6, r3, #16
 8004c46:	462a      	mov	r2, r5
 8004c48:	6818      	ldr	r0, [r3, #0]
 8004c4a:	6859      	ldr	r1, [r3, #4]
 8004c4c:	3308      	adds	r3, #8
 8004c4e:	c203      	stmia	r2!, {r0, r1}
 8004c50:	42b3      	cmp	r3, r6
 8004c52:	4615      	mov	r5, r2
 8004c54:	d1f7      	bne.n	0x8004c46
 8004c56:	2301      	movs	r3, #1
 8004c58:	f88d 3004 	strb.w	r3, [sp, #4]
 8004c5c:	2302      	movs	r3, #2
 8004c5e:	429c      	cmp	r4, r3
 8004c60:	f88d 3005 	strb.w	r3, [sp, #5]
 8004c64:	d053      	beq.n	0x8004d0e
 8004c66:	2c10      	cmp	r4, #16
 8004c68:	d017      	beq.n	0x8004c9a
 8004c6a:	2c01      	cmp	r4, #1
 8004c6c:	d162      	bne.n	0x8004d34
 8004c6e:	f240 3102 	movw	r1, #770	; 0x302
 8004c72:	4a32      	ldr	r2, [pc, #200]	; (0x8004d3c)
 8004c74:	6a13      	ldr	r3, [r2, #32]
 8004c76:	4019      	ands	r1, r3
 8004c78:	f5b1 7f81 	cmp.w	r1, #258	; 0x102
 8004c7c:	d057      	beq.n	0x8004d2e
 8004c7e:	f403 7340 	and.w	r3, r3, #768	; 0x300
 8004c82:	f5b3 7f00 	cmp.w	r3, #512	; 0x200
 8004c86:	d139      	bne.n	0x8004cfc
 8004c88:	f649 4040 	movw	r0, #40000	; 0x9c40
 8004c8c:	6a53      	ldr	r3, [r2, #36]	; 0x24
 8004c8e:	f013 0f02 	tst.w	r3, #2
 8004c92:	bf08      	it	eq
 8004c94:	2000      	moveq	r0, #0
 8004c96:	b006      	add	sp, #24
 8004c98:	bd70      	pop	{r4, r5, r6, pc}
 8004c9a:	4a28      	ldr	r2, [pc, #160]	; (0x8004d3c)
 8004c9c:	6854      	ldr	r4, [r2, #4]
 8004c9e:	6810      	ldr	r0, [r2, #0]
 8004ca0:	f010 7080 	ands.w	r0, r0, #16777216	; 0x1000000
 8004ca4:	d0f7      	beq.n	0x8004c96
 8004ca6:	f44f 1370 	mov.w	r3, #3932160	; 0x3c0000
 8004caa:	fa93 f3a3 	rbit	r3, r3
 8004cae:	fab3 f183 	clz	r1, r3
 8004cb2:	f404 1370 	and.w	r3, r4, #3932160	; 0x3c0000
 8004cb6:	40cb      	lsrs	r3, r1
 8004cb8:	a906      	add	r1, sp, #24
 8004cba:	440b      	add	r3, r1
 8004cbc:	03e1      	lsls	r1, r4, #15
 8004cbe:	f813 0c10 	ldrb.w	r0, [r3, #-16]
 8004cc2:	d519      	bpl.n	0x8004cf8
 8004cc4:	6853      	ldr	r3, [r2, #4]
 8004cc6:	f44f 3100 	mov.w	r1, #131072	; 0x20000
 8004cca:	fa91 f1a1 	rbit	r1, r1
 8004cce:	fab1 f181 	clz	r1, r1
 8004cd2:	f403 3300 	and.w	r3, r3, #131072	; 0x20000
 8004cd6:	40cb      	lsrs	r3, r1
 8004cd8:	a906      	add	r1, sp, #24
 8004cda:	440b      	add	r3, r1
 8004cdc:	f813 1c14 	ldrb.w	r1, [r3, #-20]
 8004ce0:	4b17      	ldr	r3, [pc, #92]	; (0x8004d40)
 8004ce2:	fbb3 f3f1 	udiv	r3, r3, r1
 8004ce6:	4358      	muls	r0, r3
 8004ce8:	6853      	ldr	r3, [r2, #4]
 8004cea:	025b      	lsls	r3, r3, #9
 8004cec:	d4d3      	bmi.n	0x8004c96
 8004cee:	2303      	movs	r3, #3
 8004cf0:	0040      	lsls	r0, r0, #1
 8004cf2:	fbb0 f0f3 	udiv	r0, r0, r3
 8004cf6:	e7ce      	b.n	0x8004c96
 8004cf8:	4b12      	ldr	r3, [pc, #72]	; (0x8004d44)
 8004cfa:	e7f4      	b.n	0x8004ce6
 8004cfc:	f5b3 7f40 	cmp.w	r3, #768	; 0x300
 8004d00:	d118      	bne.n	0x8004d34
 8004d02:	6813      	ldr	r3, [r2, #0]
 8004d04:	f24f 4024 	movw	r0, #62500	; 0xf424
 8004d08:	f413 3f00 	tst.w	r3, #131072	; 0x20000
 8004d0c:	e7c1      	b.n	0x8004c92
 8004d0e:	f7ff fe6d 	bl	0x80049ec
 8004d12:	4b0a      	ldr	r3, [pc, #40]	; (0x8004d3c)
 8004d14:	f44f 4280 	mov.w	r2, #16384	; 0x4000
 8004d18:	685b      	ldr	r3, [r3, #4]
 8004d1a:	fa92 f2a2 	rbit	r2, r2
 8004d1e:	fab2 f282 	clz	r2, r2
 8004d22:	f403 4340 	and.w	r3, r3, #49152	; 0xc000
 8004d26:	40d3      	lsrs	r3, r2
 8004d28:	3301      	adds	r3, #1
 8004d2a:	005b      	lsls	r3, r3, #1
 8004d2c:	e7e1      	b.n	0x8004cf2
 8004d2e:	f44f 4000 	mov.w	r0, #32768	; 0x8000
 8004d32:	e7b0      	b.n	0x8004c96
 8004d34:	2000      	movs	r0, #0
 8004d36:	e7ae      	b.n	0x8004c96
 8004d38:	6048      	str	r0, [r1, #4]
 8004d3a:	0800      	lsrs	r0, r0, #32
 8004d3c:	1000      	asrs	r0, r0, #32
 8004d3e:	4002      	ands	r2, r0
 8004d40:	1200      	asrs	r0, r0, #8
 8004d42:	007a      	lsls	r2, r7, #1
 8004d44:	0900      	lsrs	r0, r0, #4
 8004d46:	003d      	movs	r5, r7
 8004d48:	e92d 47f0 	stmdb	sp!, {r4, r5, r6, r7, r8, r9, sl, lr}
 8004d4c:	6805      	ldr	r5, [r0, #0]
 8004d4e:	68c2      	ldr	r2, [r0, #12]
 8004d50:	692b      	ldr	r3, [r5, #16]
 8004d52:	6901      	ldr	r1, [r0, #16]
 8004d54:	f423 5340 	bic.w	r3, r3, #12288	; 0x3000
 8004d58:	4313      	orrs	r3, r2
 8004d5a:	612b      	str	r3, [r5, #16]
 8004d5c:	6883      	ldr	r3, [r0, #8]
 8004d5e:	68ea      	ldr	r2, [r5, #12]
 8004d60:	430b      	orrs	r3, r1
 8004d62:	6941      	ldr	r1, [r0, #20]
 8004d64:	f422 52b0 	bic.w	r2, r2, #5632	; 0x1600
 8004d68:	f022 020c 	bic.w	r2, r2, #12
 8004d6c:	430b      	orrs	r3, r1
 8004d6e:	4313      	orrs	r3, r2
 8004d70:	60eb      	str	r3, [r5, #12]
 8004d72:	696b      	ldr	r3, [r5, #20]
 8004d74:	6982      	ldr	r2, [r0, #24]
 8004d76:	f423 7340 	bic.w	r3, r3, #768	; 0x300
 8004d7a:	4313      	orrs	r3, r2
 8004d7c:	616b      	str	r3, [r5, #20]
 8004d7e:	4b40      	ldr	r3, [pc, #256]	; (0x8004e80)
 8004d80:	4681      	mov	r9, r0
 8004d82:	429d      	cmp	r5, r3
 8004d84:	f04f 0419 	mov.w	r4, #25
 8004d88:	d146      	bne.n	0x8004e18
 8004d8a:	f7ff fe2f 	bl	0x80049ec
 8004d8e:	fb04 f300 	mul.w	r3, r4, r0
 8004d92:	f8d9 6004 	ldr.w	r6, [r9, #4]
 8004d96:	f04f 0864 	mov.w	r8, #100	; 0x64
 8004d9a:	00b6      	lsls	r6, r6, #2
 8004d9c:	fbb3 f3f6 	udiv	r3, r3, r6
 8004da0:	fbb3 f3f8 	udiv	r3, r3, r8
 8004da4:	011e      	lsls	r6, r3, #4
 8004da6:	f7ff fe21 	bl	0x80049ec
 8004daa:	4360      	muls	r0, r4
 8004dac:	f8d9 3004 	ldr.w	r3, [r9, #4]
 8004db0:	009b      	lsls	r3, r3, #2
 8004db2:	fbb0 f7f3 	udiv	r7, r0, r3
 8004db6:	f7ff fe19 	bl	0x80049ec
 8004dba:	4360      	muls	r0, r4
 8004dbc:	f8d9 3004 	ldr.w	r3, [r9, #4]
 8004dc0:	009b      	lsls	r3, r3, #2
 8004dc2:	fbb0 f3f3 	udiv	r3, r0, r3
 8004dc6:	fbb3 f3f8 	udiv	r3, r3, r8
 8004dca:	fb08 7313 	mls	r3, r8, r3, r7
 8004dce:	011b      	lsls	r3, r3, #4
 8004dd0:	3332      	adds	r3, #50	; 0x32
 8004dd2:	fbb3 f3f8 	udiv	r3, r3, r8
 8004dd6:	f003 07f0 	and.w	r7, r3, #240	; 0xf0
 8004dda:	f7ff fe07 	bl	0x80049ec
 8004dde:	4360      	muls	r0, r4
 8004de0:	f8d9 2004 	ldr.w	r2, [r9, #4]
 8004de4:	0092      	lsls	r2, r2, #2
 8004de6:	fbb0 faf2 	udiv	sl, r0, r2
 8004dea:	f7ff fdff 	bl	0x80049ec
 8004dee:	4360      	muls	r0, r4
 8004df0:	f8d9 3004 	ldr.w	r3, [r9, #4]
 8004df4:	009b      	lsls	r3, r3, #2
 8004df6:	fbb0 f3f3 	udiv	r3, r0, r3
 8004dfa:	fbb3 f3f8 	udiv	r3, r3, r8
 8004dfe:	fb08 a313 	mls	r3, r8, r3, sl
 8004e02:	011b      	lsls	r3, r3, #4
 8004e04:	3332      	adds	r3, #50	; 0x32
 8004e06:	fbb3 f3f8 	udiv	r3, r3, r8
 8004e0a:	f003 030f 	and.w	r3, r3, #15
 8004e0e:	433b      	orrs	r3, r7
 8004e10:	4433      	add	r3, r6
 8004e12:	60ab      	str	r3, [r5, #8]
 8004e14:	e8bd 87f0 	ldmia.w	sp!, {r4, r5, r6, r7, r8, r9, sl, pc}
 8004e18:	f7ff fdd0 	bl	0x80049bc
 8004e1c:	fb04 f300 	mul.w	r3, r4, r0
 8004e20:	f8d9 6004 	ldr.w	r6, [r9, #4]
 8004e24:	f04f 0864 	mov.w	r8, #100	; 0x64
 8004e28:	00b6      	lsls	r6, r6, #2
 8004e2a:	fbb3 f3f6 	udiv	r3, r3, r6
 8004e2e:	fbb3 f3f8 	udiv	r3, r3, r8
 8004e32:	011e      	lsls	r6, r3, #4
 8004e34:	f7ff fdc2 	bl	0x80049bc
 8004e38:	4360      	muls	r0, r4
 8004e3a:	f8d9 3004 	ldr.w	r3, [r9, #4]
 8004e3e:	009b      	lsls	r3, r3, #2
 8004e40:	fbb0 f7f3 	udiv	r7, r0, r3
 8004e44:	f7ff fdba 	bl	0x80049bc
 8004e48:	4360      	muls	r0, r4
 8004e4a:	f8d9 3004 	ldr.w	r3, [r9, #4]
 8004e4e:	009b      	lsls	r3, r3, #2
 8004e50:	fbb0 f3f3 	udiv	r3, r0, r3
 8004e54:	fbb3 f3f8 	udiv	r3, r3, r8
 8004e58:	fb08 7313 	mls	r3, r8, r3, r7
 8004e5c:	011b      	lsls	r3, r3, #4
 8004e5e:	3332      	adds	r3, #50	; 0x32
 8004e60:	fbb3 f3f8 	udiv	r3, r3, r8
 8004e64:	f003 07f0 	and.w	r7, r3, #240	; 0xf0
 8004e68:	f7ff fda8 	bl	0x80049bc
 8004e6c:	4360      	muls	r0, r4
 8004e6e:	f8d9 2004 	ldr.w	r2, [r9, #4]
 8004e72:	0092      	lsls	r2, r2, #2
 8004e74:	fbb0 faf2 	udiv	sl, r0, r2
 8004e78:	f7ff fda0 	bl	0x80049bc
 8004e7c:	e7b7      	b.n	0x8004dee
 8004e7e:	bf00      	nop
 8004e80:	3800      	subs	r0, #0
 8004e82:	4001      	ands	r1, r0
 8004e84:	b5f8      	push	{r3, r4, r5, r6, r7, lr}
 8004e86:	4604      	mov	r4, r0
 8004e88:	460e      	mov	r6, r1
 8004e8a:	4615      	mov	r5, r2
 8004e8c:	f7fd fa7a 	bl	0x8002384
 8004e90:	4607      	mov	r7, r0
 8004e92:	6822      	ldr	r2, [r4, #0]
 8004e94:	6813      	ldr	r3, [r2, #0]
 8004e96:	ea36 0303 	bics.w	r3, r6, r3
 8004e9a:	d101      	bne.n	0x8004ea0
 8004e9c:	2000      	movs	r0, #0
 8004e9e:	bdf8      	pop	{r3, r4, r5, r6, r7, pc}
 8004ea0:	1c6b      	adds	r3, r5, #1
 8004ea2:	d0f7      	beq.n	0x8004e94
 8004ea4:	b9c5      	cbnz	r5, 0x8004ed8
 8004ea6:	6823      	ldr	r3, [r4, #0]
 8004ea8:	2003      	movs	r0, #3
 8004eaa:	68da      	ldr	r2, [r3, #12]
 8004eac:	f022 0280 	bic.w	r2, r2, #128	; 0x80
 8004eb0:	60da      	str	r2, [r3, #12]
 8004eb2:	68da      	ldr	r2, [r3, #12]
 8004eb4:	f022 0220 	bic.w	r2, r2, #32
 8004eb8:	60da      	str	r2, [r3, #12]
 8004eba:	68da      	ldr	r2, [r3, #12]
 8004ebc:	f422 7280 	bic.w	r2, r2, #256	; 0x100
 8004ec0:	60da      	str	r2, [r3, #12]
 8004ec2:	695a      	ldr	r2, [r3, #20]
 8004ec4:	f022 0201 	bic.w	r2, r2, #1
 8004ec8:	615a      	str	r2, [r3, #20]
 8004eca:	2301      	movs	r3, #1
 8004ecc:	f884 3039 	strb.w	r3, [r4, #57]	; 0x39
 8004ed0:	2300      	movs	r3, #0
 8004ed2:	f884 3038 	strb.w	r3, [r4, #56]	; 0x38
 8004ed6:	bdf8      	pop	{r3, r4, r5, r6, r7, pc}
 8004ed8:	f7fd fa54 	bl	0x8002384
 8004edc:	1bc0      	subs	r0, r0, r7
 8004ede:	4285      	cmp	r5, r0
 8004ee0:	d2d7      	bcs.n	0x8004e92
 8004ee2:	e7e0      	b.n	0x8004ea6
 8004ee4:	4770      	bx	lr
 8004ee6:	b510      	push	{r4, lr}
 8004ee8:	4604      	mov	r4, r0
 8004eea:	b330      	cbz	r0, 0x8004f3a
 8004eec:	f890 3039 	ldrb.w	r3, [r0, #57]	; 0x39
 8004ef0:	f003 02ff 	and.w	r2, r3, #255	; 0xff
 8004ef4:	b91b      	cbnz	r3, 0x8004efe
 8004ef6:	f880 2038 	strb.w	r2, [r0, #56]	; 0x38
 8004efa:	f7ff fff3 	bl	0x8004ee4
 8004efe:	2302      	movs	r3, #2
 8004f00:	6822      	ldr	r2, [r4, #0]
 8004f02:	f884 3039 	strb.w	r3, [r4, #57]	; 0x39
 8004f06:	68d3      	ldr	r3, [r2, #12]
 8004f08:	4620      	mov	r0, r4
 8004f0a:	f423 5300 	bic.w	r3, r3, #8192	; 0x2000
 8004f0e:	60d3      	str	r3, [r2, #12]
 8004f10:	f7ff ff1a 	bl	0x8004d48
 8004f14:	6823      	ldr	r3, [r4, #0]
 8004f16:	2000      	movs	r0, #0
 8004f18:	691a      	ldr	r2, [r3, #16]
 8004f1a:	f422 4290 	bic.w	r2, r2, #18432	; 0x4800
 8004f1e:	611a      	str	r2, [r3, #16]
 8004f20:	695a      	ldr	r2, [r3, #20]
 8004f22:	f022 022a 	bic.w	r2, r2, #42	; 0x2a
 8004f26:	615a      	str	r2, [r3, #20]
 8004f28:	68da      	ldr	r2, [r3, #12]
 8004f2a:	f442 5200 	orr.w	r2, r2, #8192	; 0x2000
 8004f2e:	60da      	str	r2, [r3, #12]
 8004f30:	2301      	movs	r3, #1
 8004f32:	63e0      	str	r0, [r4, #60]	; 0x3c
 8004f34:	f884 3039 	strb.w	r3, [r4, #57]	; 0x39
 8004f38:	bd10      	pop	{r4, pc}
 8004f3a:	2001      	movs	r0, #1
 8004f3c:	bd10      	pop	{r4, pc}
 8004f3e:	b510      	push	{r4, lr}
 8004f40:	4604      	mov	r4, r0
 8004f42:	b350      	cbz	r0, 0x8004f9a
 8004f44:	f890 3039 	ldrb.w	r3, [r0, #57]	; 0x39
 8004f48:	f003 02ff 	and.w	r2, r3, #255	; 0xff
 8004f4c:	b91b      	cbnz	r3, 0x8004f56
 8004f4e:	f880 2038 	strb.w	r2, [r0, #56]	; 0x38
 8004f52:	f7ff ffc7 	bl	0x8004ee4
 8004f56:	2302      	movs	r3, #2
 8004f58:	6822      	ldr	r2, [r4, #0]
 8004f5a:	f884 3039 	strb.w	r3, [r4, #57]	; 0x39
 8004f5e:	68d3      	ldr	r3, [r2, #12]
 8004f60:	4620      	mov	r0, r4
 8004f62:	f423 5300 	bic.w	r3, r3, #8192	; 0x2000
 8004f66:	60d3      	str	r3, [r2, #12]
 8004f68:	f7ff feee 	bl	0x8004d48
 8004f6c:	6823      	ldr	r3, [r4, #0]
 8004f6e:	2000      	movs	r0, #0
 8004f70:	691a      	ldr	r2, [r3, #16]
 8004f72:	f422 4290 	bic.w	r2, r2, #18432	; 0x4800
 8004f76:	611a      	str	r2, [r3, #16]
 8004f78:	695a      	ldr	r2, [r3, #20]
 8004f7a:	f022 0222 	bic.w	r2, r2, #34	; 0x22
 8004f7e:	615a      	str	r2, [r3, #20]
 8004f80:	695a      	ldr	r2, [r3, #20]
 8004f82:	f042 0208 	orr.w	r2, r2, #8
 8004f86:	615a      	str	r2, [r3, #20]
 8004f88:	68da      	ldr	r2, [r3, #12]
 8004f8a:	f442 5200 	orr.w	r2, r2, #8192	; 0x2000
 8004f8e:	60da      	str	r2, [r3, #12]
 8004f90:	2301      	movs	r3, #1
 8004f92:	63e0      	str	r0, [r4, #60]	; 0x3c
 8004f94:	f884 3039 	strb.w	r3, [r4, #57]	; 0x39
 8004f98:	bd10      	pop	{r4, pc}
 8004f9a:	2001      	movs	r0, #1
 8004f9c:	bd10      	pop	{r4, pc}
 8004f9e:	b538      	push	{r3, r4, r5, lr}
 8004fa0:	460d      	mov	r5, r1
 8004fa2:	4604      	mov	r4, r0
 8004fa4:	b378      	cbz	r0, 0x8005006
 8004fa6:	f890 3039 	ldrb.w	r3, [r0, #57]	; 0x39
 8004faa:	f003 02ff 	and.w	r2, r3, #255	; 0xff
 8004fae:	b91b      	cbnz	r3, 0x8004fb8
 8004fb0:	f880 2038 	strb.w	r2, [r0, #56]	; 0x38
 8004fb4:	f7ff ff96 	bl	0x8004ee4
 8004fb8:	2302      	movs	r3, #2
 8004fba:	6822      	ldr	r2, [r4, #0]
 8004fbc:	f884 3039 	strb.w	r3, [r4, #57]	; 0x39
 8004fc0:	68d3      	ldr	r3, [r2, #12]
 8004fc2:	4620      	mov	r0, r4
 8004fc4:	f423 5300 	bic.w	r3, r3, #8192	; 0x2000
 8004fc8:	60d3      	str	r3, [r2, #12]
 8004fca:	f7ff febd 	bl	0x8004d48
 8004fce:	6823      	ldr	r3, [r4, #0]
 8004fd0:	2000      	movs	r0, #0
 8004fd2:	691a      	ldr	r2, [r3, #16]
 8004fd4:	f422 6200 	bic.w	r2, r2, #2048	; 0x800
 8004fd8:	611a      	str	r2, [r3, #16]
 8004fda:	695a      	ldr	r2, [r3, #20]
 8004fdc:	f022 022a 	bic.w	r2, r2, #42	; 0x2a
 8004fe0:	615a      	str	r2, [r3, #20]
 8004fe2:	691a      	ldr	r2, [r3, #16]
 8004fe4:	f442 4280 	orr.w	r2, r2, #16384	; 0x4000
 8004fe8:	611a      	str	r2, [r3, #16]
 8004fea:	6919      	ldr	r1, [r3, #16]
 8004fec:	f021 0120 	bic.w	r1, r1, #32
 8004ff0:	4329      	orrs	r1, r5
 8004ff2:	6119      	str	r1, [r3, #16]
 8004ff4:	68da      	ldr	r2, [r3, #12]
 8004ff6:	f442 5200 	orr.w	r2, r2, #8192	; 0x2000
 8004ffa:	60da      	str	r2, [r3, #12]
 8004ffc:	2301      	movs	r3, #1
 8004ffe:	63e0      	str	r0, [r4, #60]	; 0x3c
 8005000:	f884 3039 	strb.w	r3, [r4, #57]	; 0x39
 8005004:	bd38      	pop	{r3, r4, r5, pc}
 8005006:	2001      	movs	r0, #1
 8005008:	bd38      	pop	{r3, r4, r5, pc}
 800500a:	b570      	push	{r4, r5, r6, lr}
 800500c:	460e      	mov	r6, r1
 800500e:	4615      	mov	r5, r2
 8005010:	4604      	mov	r4, r0
 8005012:	2800      	cmp	r0, #0
 8005014:	d030      	beq.n	0x8005078
 8005016:	f890 3039 	ldrb.w	r3, [r0, #57]	; 0x39
 800501a:	f003 02ff 	and.w	r2, r3, #255	; 0xff
 800501e:	b91b      	cbnz	r3, 0x8005028
 8005020:	f880 2038 	strb.w	r2, [r0, #56]	; 0x38
 8005024:	f7ff ff5e 	bl	0x8004ee4
 8005028:	2302      	movs	r3, #2
 800502a:	6822      	ldr	r2, [r4, #0]
 800502c:	f884 3039 	strb.w	r3, [r4, #57]	; 0x39
 8005030:	68d3      	ldr	r3, [r2, #12]
 8005032:	4620      	mov	r0, r4
 8005034:	f423 5300 	bic.w	r3, r3, #8192	; 0x2000
 8005038:	60d3      	str	r3, [r2, #12]
 800503a:	f7ff fe85 	bl	0x8004d48
 800503e:	6823      	ldr	r3, [r4, #0]
 8005040:	2000      	movs	r0, #0
 8005042:	691a      	ldr	r2, [r3, #16]
 8005044:	f422 4290 	bic.w	r2, r2, #18432	; 0x4800
 8005048:	611a      	str	r2, [r3, #16]
 800504a:	695a      	ldr	r2, [r3, #20]
 800504c:	f022 022a 	bic.w	r2, r2, #42	; 0x2a
 8005050:	615a      	str	r2, [r3, #20]
 8005052:	6919      	ldr	r1, [r3, #16]
 8005054:	f021 010f 	bic.w	r1, r1, #15
 8005058:	4331      	orrs	r1, r6
 800505a:	6119      	str	r1, [r3, #16]
 800505c:	68da      	ldr	r2, [r3, #12]
 800505e:	f422 6200 	bic.w	r2, r2, #2048	; 0x800
 8005062:	432a      	orrs	r2, r5
 8005064:	60da      	str	r2, [r3, #12]
 8005066:	68da      	ldr	r2, [r3, #12]
 8005068:	f442 5200 	orr.w	r2, r2, #8192	; 0x2000
 800506c:	60da      	str	r2, [r3, #12]
 800506e:	2301      	movs	r3, #1
 8005070:	63e0      	str	r0, [r4, #60]	; 0x3c
 8005072:	f884 3039 	strb.w	r3, [r4, #57]	; 0x39
 8005076:	bd70      	pop	{r4, r5, r6, pc}
 8005078:	2001      	movs	r0, #1
 800507a:	bd70      	pop	{r4, r5, r6, pc}
 800507c:	4770      	bx	lr
 800507e:	b538      	push	{r3, r4, r5, lr}
 8005080:	4605      	mov	r5, r0
 8005082:	b1a0      	cbz	r0, 0x80050ae
 8005084:	2302      	movs	r3, #2
 8005086:	2400      	movs	r4, #0
 8005088:	f880 3039 	strb.w	r3, [r0, #57]	; 0x39
 800508c:	6803      	ldr	r3, [r0, #0]
 800508e:	68da      	ldr	r2, [r3, #12]
 8005090:	f422 5200 	bic.w	r2, r2, #8192	; 0x2000
 8005094:	60da      	str	r2, [r3, #12]
 8005096:	60dc      	str	r4, [r3, #12]
 8005098:	611c      	str	r4, [r3, #16]
 800509a:	615c      	str	r4, [r3, #20]
 800509c:	f7ff ffee 	bl	0x800507c
 80050a0:	63ec      	str	r4, [r5, #60]	; 0x3c
 80050a2:	f885 4038 	strb.w	r4, [r5, #56]	; 0x38
 80050a6:	f885 4039 	strb.w	r4, [r5, #57]	; 0x39
 80050aa:	4620      	mov	r0, r4
 80050ac:	bd38      	pop	{r3, r4, r5, pc}
 80050ae:	2001      	movs	r0, #1
 80050b0:	bd38      	pop	{r3, r4, r5, pc}
 80050b2:	b570      	push	{r4, r5, r6, lr}
 80050b4:	460d      	mov	r5, r1
 80050b6:	f890 1039 	ldrb.w	r1, [r0, #57]	; 0x39
 80050ba:	4604      	mov	r4, r0
 80050bc:	b2c9      	uxtb	r1, r1
 80050be:	2901      	cmp	r1, #1
 80050c0:	461e      	mov	r6, r3
 80050c2:	d001      	beq.n	0x80050c8
 80050c4:	2922      	cmp	r1, #34	; 0x22
 80050c6:	d14d      	bne.n	0x8005164
 80050c8:	2d00      	cmp	r5, #0
 80050ca:	d049      	beq.n	0x8005160
 80050cc:	2a00      	cmp	r2, #0
 80050ce:	d047      	beq.n	0x8005160
 80050d0:	f894 3038 	ldrb.w	r3, [r4, #56]	; 0x38
 80050d4:	2b01      	cmp	r3, #1
 80050d6:	d045      	beq.n	0x8005164
 80050d8:	2301      	movs	r3, #1
 80050da:	f884 3038 	strb.w	r3, [r4, #56]	; 0x38
 80050de:	2300      	movs	r3, #0
 80050e0:	63e3      	str	r3, [r4, #60]	; 0x3c
 80050e2:	f894 3039 	ldrb.w	r3, [r4, #57]	; 0x39
 80050e6:	84a2      	strh	r2, [r4, #36]	; 0x24
 80050e8:	2b22      	cmp	r3, #34	; 0x22
 80050ea:	bf0c      	ite	eq
 80050ec:	2332      	moveq	r3, #50	; 0x32
 80050ee:	2312      	movne	r3, #18
 80050f0:	84e2      	strh	r2, [r4, #38]	; 0x26
 80050f2:	f884 3039 	strb.w	r3, [r4, #57]	; 0x39
 80050f6:	8ce2      	ldrh	r2, [r4, #38]	; 0x26
 80050f8:	b98a      	cbnz	r2, 0x800511e
 80050fa:	4632      	mov	r2, r6
 80050fc:	2140      	movs	r1, #64	; 0x40
 80050fe:	4620      	mov	r0, r4
 8005100:	f7ff fec0 	bl	0x8004e84
 8005104:	b9c0      	cbnz	r0, 0x8005138
 8005106:	f894 3039 	ldrb.w	r3, [r4, #57]	; 0x39
 800510a:	2b32      	cmp	r3, #50	; 0x32
 800510c:	bf0c      	ite	eq
 800510e:	2322      	moveq	r3, #34	; 0x22
 8005110:	2301      	movne	r3, #1
 8005112:	f884 3039 	strb.w	r3, [r4, #57]	; 0x39
 8005116:	2300      	movs	r3, #0
 8005118:	f884 3038 	strb.w	r3, [r4, #56]	; 0x38
 800511c:	bd70      	pop	{r4, r5, r6, pc}
 800511e:	68a3      	ldr	r3, [r4, #8]
 8005120:	3a01      	subs	r2, #1
 8005122:	f5b3 5f80 	cmp.w	r3, #4096	; 0x1000
 8005126:	84e2      	strh	r2, [r4, #38]	; 0x26
 8005128:	f04f 0180 	mov.w	r1, #128	; 0x80
 800512c:	4632      	mov	r2, r6
 800512e:	4620      	mov	r0, r4
 8005130:	d10d      	bne.n	0x800514e
 8005132:	f7ff fea7 	bl	0x8004e84
 8005136:	b108      	cbz	r0, 0x800513c
 8005138:	2003      	movs	r0, #3
 800513a:	bd70      	pop	{r4, r5, r6, pc}
 800513c:	882b      	ldrh	r3, [r5, #0]
 800513e:	6822      	ldr	r2, [r4, #0]
 8005140:	f3c3 0308 	ubfx	r3, r3, #0, #9
 8005144:	6053      	str	r3, [r2, #4]
 8005146:	6923      	ldr	r3, [r4, #16]
 8005148:	b943      	cbnz	r3, 0x800515c
 800514a:	3502      	adds	r5, #2
 800514c:	e7d3      	b.n	0x80050f6
 800514e:	f7ff fe99 	bl	0x8004e84
 8005152:	2800      	cmp	r0, #0
 8005154:	d1f0      	bne.n	0x8005138
 8005156:	6823      	ldr	r3, [r4, #0]
 8005158:	782a      	ldrb	r2, [r5, #0]
 800515a:	605a      	str	r2, [r3, #4]
 800515c:	3501      	adds	r5, #1
 800515e:	e7ca      	b.n	0x80050f6
 8005160:	2001      	movs	r0, #1
 8005162:	bd70      	pop	{r4, r5, r6, pc}
 8005164:	2002      	movs	r0, #2
 8005166:	bd70      	pop	{r4, r5, r6, pc}
 8005168:	b570      	push	{r4, r5, r6, lr}
 800516a:	461e      	mov	r6, r3
 800516c:	f890 3039 	ldrb.w	r3, [r0, #57]	; 0x39
 8005170:	4604      	mov	r4, r0
 8005172:	b2db      	uxtb	r3, r3
 8005174:	2b01      	cmp	r3, #1
 8005176:	460d      	mov	r5, r1
 8005178:	d001      	beq.n	0x800517e
 800517a:	2b12      	cmp	r3, #18
 800517c:	d151      	bne.n	0x8005222
 800517e:	2d00      	cmp	r5, #0
 8005180:	d04d      	beq.n	0x800521e
 8005182:	2a00      	cmp	r2, #0
 8005184:	d04b      	beq.n	0x800521e
 8005186:	f894 3038 	ldrb.w	r3, [r4, #56]	; 0x38
 800518a:	2b01      	cmp	r3, #1
 800518c:	d049      	beq.n	0x8005222
 800518e:	2301      	movs	r3, #1
 8005190:	f884 3038 	strb.w	r3, [r4, #56]	; 0x38
 8005194:	2300      	movs	r3, #0
 8005196:	63e3      	str	r3, [r4, #60]	; 0x3c
 8005198:	f894 3039 	ldrb.w	r3, [r4, #57]	; 0x39
 800519c:	85a2      	strh	r2, [r4, #44]	; 0x2c
 800519e:	2b12      	cmp	r3, #18
 80051a0:	bf0c      	ite	eq
 80051a2:	2332      	moveq	r3, #50	; 0x32
 80051a4:	2322      	movne	r3, #34	; 0x22
 80051a6:	85e2      	strh	r2, [r4, #46]	; 0x2e
 80051a8:	f884 3039 	strb.w	r3, [r4, #57]	; 0x39
 80051ac:	8de3      	ldrh	r3, [r4, #46]	; 0x2e
 80051ae:	b95b      	cbnz	r3, 0x80051c8
 80051b0:	f894 3039 	ldrb.w	r3, [r4, #57]	; 0x39
 80051b4:	2000      	movs	r0, #0
 80051b6:	2b32      	cmp	r3, #50	; 0x32
 80051b8:	bf0c      	ite	eq
 80051ba:	2312      	moveq	r3, #18
 80051bc:	2301      	movne	r3, #1
 80051be:	f884 0038 	strb.w	r0, [r4, #56]	; 0x38
 80051c2:	f884 3039 	strb.w	r3, [r4, #57]	; 0x39
 80051c6:	bd70      	pop	{r4, r5, r6, pc}
 80051c8:	3b01      	subs	r3, #1
 80051ca:	85e3      	strh	r3, [r4, #46]	; 0x2e
 80051cc:	68a3      	ldr	r3, [r4, #8]
 80051ce:	4632      	mov	r2, r6
 80051d0:	f5b3 5f80 	cmp.w	r3, #4096	; 0x1000
 80051d4:	f04f 0120 	mov.w	r1, #32
 80051d8:	4620      	mov	r0, r4
 80051da:	d111      	bne.n	0x8005200
 80051dc:	f7ff fe52 	bl	0x8004e84
 80051e0:	b108      	cbz	r0, 0x80051e6
 80051e2:	2003      	movs	r0, #3
 80051e4:	bd70      	pop	{r4, r5, r6, pc}
 80051e6:	6823      	ldr	r3, [r4, #0]
 80051e8:	6922      	ldr	r2, [r4, #16]
 80051ea:	685b      	ldr	r3, [r3, #4]
 80051ec:	b922      	cbnz	r2, 0x80051f8
 80051ee:	f3c3 0308 	ubfx	r3, r3, #0, #9
 80051f2:	f825 3b02 	strh.w	r3, [r5], #2
 80051f6:	e7d9      	b.n	0x80051ac
 80051f8:	b2db      	uxtb	r3, r3
 80051fa:	f825 3b01 	strh.w	r3, [r5], #1
 80051fe:	e7d5      	b.n	0x80051ac
 8005200:	f7ff fe40 	bl	0x8004e84
 8005204:	2800      	cmp	r0, #0
 8005206:	d1ec      	bne.n	0x80051e2
 8005208:	6823      	ldr	r3, [r4, #0]
 800520a:	6921      	ldr	r1, [r4, #16]
 800520c:	1c6a      	adds	r2, r5, #1
 800520e:	685b      	ldr	r3, [r3, #4]
 8005210:	b911      	cbnz	r1, 0x8005218
 8005212:	702b      	strb	r3, [r5, #0]
 8005214:	4615      	mov	r5, r2
 8005216:	e7c9      	b.n	0x80051ac
 8005218:	f003 037f 	and.w	r3, r3, #127	; 0x7f
 800521c:	e7f9      	b.n	0x8005212
 800521e:	2001      	movs	r0, #1
 8005220:	bd70      	pop	{r4, r5, r6, pc}
 8005222:	2002      	movs	r0, #2
 8005224:	bd70      	pop	{r4, r5, r6, pc}
 8005226:	f890 3039 	ldrb.w	r3, [r0, #57]	; 0x39
 800522a:	b2db      	uxtb	r3, r3
 800522c:	2b01      	cmp	r3, #1
 800522e:	d001      	beq.n	0x8005234
 8005230:	2b22      	cmp	r3, #34	; 0x22
 8005232:	d120      	bne.n	0x8005276
 8005234:	b1e9      	cbz	r1, 0x8005272
 8005236:	b1e2      	cbz	r2, 0x8005272
 8005238:	f890 3038 	ldrb.w	r3, [r0, #56]	; 0x38
 800523c:	2b01      	cmp	r3, #1
 800523e:	d01a      	beq.n	0x8005276
 8005240:	2301      	movs	r3, #1
 8005242:	f880 3038 	strb.w	r3, [r0, #56]	; 0x38
 8005246:	2300      	movs	r3, #0
 8005248:	63c3      	str	r3, [r0, #60]	; 0x3c
 800524a:	8482      	strh	r2, [r0, #36]	; 0x24
 800524c:	84c2      	strh	r2, [r0, #38]	; 0x26
 800524e:	f890 2039 	ldrb.w	r2, [r0, #57]	; 0x39
 8005252:	f880 3038 	strb.w	r3, [r0, #56]	; 0x38
 8005256:	2a22      	cmp	r2, #34	; 0x22
 8005258:	bf0c      	ite	eq
 800525a:	2232      	moveq	r2, #50	; 0x32
 800525c:	2212      	movne	r2, #18
 800525e:	f880 2039 	strb.w	r2, [r0, #57]	; 0x39
 8005262:	6802      	ldr	r2, [r0, #0]
 8005264:	6201      	str	r1, [r0, #32]
 8005266:	68d3      	ldr	r3, [r2, #12]
 8005268:	2000      	movs	r0, #0
 800526a:	f043 0380 	orr.w	r3, r3, #128	; 0x80
 800526e:	60d3      	str	r3, [r2, #12]
 8005270:	4770      	bx	lr
 8005272:	2001      	movs	r0, #1
 8005274:	4770      	bx	lr
 8005276:	2002      	movs	r0, #2
 8005278:	4770      	bx	lr
 800527a:	f890 3039 	ldrb.w	r3, [r0, #57]	; 0x39
 800527e:	b2db      	uxtb	r3, r3
 8005280:	2b01      	cmp	r3, #1
 8005282:	d001      	beq.n	0x8005288
 8005284:	2b12      	cmp	r3, #18
 8005286:	d128      	bne.n	0x80052da
 8005288:	b329      	cbz	r1, 0x80052d6
 800528a:	b322      	cbz	r2, 0x80052d6
 800528c:	f890 3038 	ldrb.w	r3, [r0, #56]	; 0x38
 8005290:	2b01      	cmp	r3, #1
 8005292:	d022      	beq.n	0x80052da
 8005294:	2301      	movs	r3, #1
 8005296:	f880 3038 	strb.w	r3, [r0, #56]	; 0x38
 800529a:	2300      	movs	r3, #0
 800529c:	63c3      	str	r3, [r0, #60]	; 0x3c
 800529e:	8582      	strh	r2, [r0, #44]	; 0x2c
 80052a0:	85c2      	strh	r2, [r0, #46]	; 0x2e
 80052a2:	f890 2039 	ldrb.w	r2, [r0, #57]	; 0x39
 80052a6:	f880 3038 	strb.w	r3, [r0, #56]	; 0x38
 80052aa:	2a12      	cmp	r2, #18
 80052ac:	bf0c      	ite	eq
 80052ae:	2232      	moveq	r2, #50	; 0x32
 80052b0:	2222      	movne	r2, #34	; 0x22
 80052b2:	6803      	ldr	r3, [r0, #0]
 80052b4:	f880 2039 	strb.w	r2, [r0, #57]	; 0x39
 80052b8:	68da      	ldr	r2, [r3, #12]
 80052ba:	6281      	str	r1, [r0, #40]	; 0x28
 80052bc:	f442 7280 	orr.w	r2, r2, #256	; 0x100
 80052c0:	60da      	str	r2, [r3, #12]
 80052c2:	695a      	ldr	r2, [r3, #20]
 80052c4:	2000      	movs	r0, #0
 80052c6:	f042 0201 	orr.w	r2, r2, #1
 80052ca:	615a      	str	r2, [r3, #20]
 80052cc:	68da      	ldr	r2, [r3, #12]
 80052ce:	f042 0220 	orr.w	r2, r2, #32
 80052d2:	60da      	str	r2, [r3, #12]
 80052d4:	4770      	bx	lr
 80052d6:	2001      	movs	r0, #1
 80052d8:	4770      	bx	lr
 80052da:	2002      	movs	r0, #2
 80052dc:	4770      	bx	lr
 80052de:	0000      	movs	r0, r0
 80052e0:	4613      	mov	r3, r2
 80052e2:	f890 2039 	ldrb.w	r2, [r0, #57]	; 0x39
 80052e6:	b510      	push	{r4, lr}
 80052e8:	b2d2      	uxtb	r2, r2
 80052ea:	2a01      	cmp	r2, #1
 80052ec:	4604      	mov	r4, r0
 80052ee:	d001      	beq.n	0x80052f4
 80052f0:	2a22      	cmp	r2, #34	; 0x22
 80052f2:	d12e      	bne.n	0x8005352
 80052f4:	b359      	cbz	r1, 0x800534e
 80052f6:	b353      	cbz	r3, 0x800534e
 80052f8:	f894 2038 	ldrb.w	r2, [r4, #56]	; 0x38
 80052fc:	2a01      	cmp	r2, #1
 80052fe:	d028      	beq.n	0x8005352
 8005300:	2201      	movs	r2, #1
 8005302:	f884 2038 	strb.w	r2, [r4, #56]	; 0x38
 8005306:	2200      	movs	r2, #0
 8005308:	63e2      	str	r2, [r4, #60]	; 0x3c
 800530a:	f894 2039 	ldrb.w	r2, [r4, #57]	; 0x39
 800530e:	6b20      	ldr	r0, [r4, #48]	; 0x30
 8005310:	2a22      	cmp	r2, #34	; 0x22
 8005312:	bf0c      	ite	eq
 8005314:	2232      	moveq	r2, #50	; 0x32
 8005316:	2212      	movne	r2, #18
 8005318:	f884 2039 	strb.w	r2, [r4, #57]	; 0x39
 800531c:	4a0e      	ldr	r2, [pc, #56]	; (0x8005358)
 800531e:	84a3      	strh	r3, [r4, #36]	; 0x24
 8005320:	84e3      	strh	r3, [r4, #38]	; 0x26
 8005322:	6221      	str	r1, [r4, #32]
 8005324:	6282      	str	r2, [r0, #40]	; 0x28
 8005326:	4a0d      	ldr	r2, [pc, #52]	; (0x800535c)
 8005328:	62c2      	str	r2, [r0, #44]	; 0x2c
 800532a:	4a0d      	ldr	r2, [pc, #52]	; (0x8005360)
 800532c:	6302      	str	r2, [r0, #48]	; 0x30
 800532e:	6822      	ldr	r2, [r4, #0]
 8005330:	3204      	adds	r2, #4
 8005332:	f7fd fa72 	bl	0x800281a
 8005336:	f06f 0240 	mvn.w	r2, #64	; 0x40
 800533a:	2000      	movs	r0, #0
 800533c:	6823      	ldr	r3, [r4, #0]
 800533e:	601a      	str	r2, [r3, #0]
 8005340:	695a      	ldr	r2, [r3, #20]
 8005342:	f042 0280 	orr.w	r2, r2, #128	; 0x80
 8005346:	615a      	str	r2, [r3, #20]
 8005348:	f884 0038 	strb.w	r0, [r4, #56]	; 0x38
 800534c:	bd10      	pop	{r4, pc}
 800534e:	2001      	movs	r0, #1
 8005350:	bd10      	pop	{r4, pc}
 8005352:	2002      	movs	r0, #2
 8005354:	bd10      	pop	{r4, pc}
 8005356:	bf00      	nop
 8005358:	54d9      	strb	r1, [r3, r3]
 800535a:	0800      	lsrs	r0, r0, #32
 800535c:	5507      	strb	r7, [r0, r4]
 800535e:	0800      	lsrs	r0, r0, #32
 8005360:	5553      	strb	r3, [r2, r5]
 8005362:	0800      	lsrs	r0, r0, #32
 8005364:	b538      	push	{r3, r4, r5, lr}
 8005366:	4604      	mov	r4, r0
 8005368:	f890 0039 	ldrb.w	r0, [r0, #57]	; 0x39
 800536c:	4613      	mov	r3, r2
 800536e:	b2c0      	uxtb	r0, r0
 8005370:	2801      	cmp	r0, #1
 8005372:	d001      	beq.n	0x8005378
 8005374:	2812      	cmp	r0, #18
 8005376:	d12b      	bne.n	0x80053d0
 8005378:	b341      	cbz	r1, 0x80053cc
 800537a:	b33b      	cbz	r3, 0x80053cc
 800537c:	f894 2038 	ldrb.w	r2, [r4, #56]	; 0x38
 8005380:	2a01      	cmp	r2, #1
 8005382:	d025      	beq.n	0x80053d0
 8005384:	2201      	movs	r2, #1
 8005386:	f884 2038 	strb.w	r2, [r4, #56]	; 0x38
 800538a:	2200      	movs	r2, #0
 800538c:	63e2      	str	r2, [r4, #60]	; 0x3c
 800538e:	f894 2039 	ldrb.w	r2, [r4, #57]	; 0x39
 8005392:	6b60      	ldr	r0, [r4, #52]	; 0x34
 8005394:	2a12      	cmp	r2, #18
 8005396:	bf0c      	ite	eq
 8005398:	2232      	moveq	r2, #50	; 0x32
 800539a:	2222      	movne	r2, #34	; 0x22
 800539c:	f884 2039 	strb.w	r2, [r4, #57]	; 0x39
 80053a0:	4a0c      	ldr	r2, [pc, #48]	; (0x80053d4)
 80053a2:	62a1      	str	r1, [r4, #40]	; 0x28
 80053a4:	85a3      	strh	r3, [r4, #44]	; 0x2c
 80053a6:	6282      	str	r2, [r0, #40]	; 0x28
 80053a8:	4a0b      	ldr	r2, [pc, #44]	; (0x80053d8)
 80053aa:	6825      	ldr	r5, [r4, #0]
 80053ac:	62c2      	str	r2, [r0, #44]	; 0x2c
 80053ae:	4a0b      	ldr	r2, [pc, #44]	; (0x80053dc)
 80053b0:	6302      	str	r2, [r0, #48]	; 0x30
 80053b2:	460a      	mov	r2, r1
 80053b4:	1d29      	adds	r1, r5, #4
 80053b6:	f7fd fa30 	bl	0x800281a
 80053ba:	2000      	movs	r0, #0
 80053bc:	6822      	ldr	r2, [r4, #0]
 80053be:	6953      	ldr	r3, [r2, #20]
 80053c0:	f043 0340 	orr.w	r3, r3, #64	; 0x40
 80053c4:	6153      	str	r3, [r2, #20]
 80053c6:	f884 0038 	strb.w	r0, [r4, #56]	; 0x38
 80053ca:	bd38      	pop	{r3, r4, r5, pc}
 80053cc:	2001      	movs	r0, #1
 80053ce:	bd38      	pop	{r3, r4, r5, pc}
 80053d0:	2002      	movs	r0, #2
 80053d2:	bd38      	pop	{r3, r4, r5, pc}
 80053d4:	5513      	strb	r3, [r2, r4]
 80053d6:	0800      	lsrs	r0, r0, #32
 80053d8:	5547      	strb	r7, [r0, r5]
 80053da:	0800      	lsrs	r0, r0, #32
 80053dc:	5553      	strb	r3, [r2, r5]
 80053de:	0800      	lsrs	r0, r0, #32
 80053e0:	f890 3038 	ldrb.w	r3, [r0, #56]	; 0x38
 80053e4:	2b01      	cmp	r3, #1
 80053e6:	d026      	beq.n	0x8005436
 80053e8:	2301      	movs	r3, #1
 80053ea:	f890 2039 	ldrb.w	r2, [r0, #57]	; 0x39
 80053ee:	f880 3038 	strb.w	r3, [r0, #56]	; 0x38
 80053f2:	2a12      	cmp	r2, #18
 80053f4:	d109      	bne.n	0x800540a
 80053f6:	6802      	ldr	r2, [r0, #0]
 80053f8:	6953      	ldr	r3, [r2, #20]
 80053fa:	f023 0380 	bic.w	r3, r3, #128	; 0x80
 80053fe:	6153      	str	r3, [r2, #20]
 8005400:	2300      	movs	r3, #0
 8005402:	f880 3038 	strb.w	r3, [r0, #56]	; 0x38
 8005406:	4618      	mov	r0, r3
 8005408:	4770      	bx	lr
 800540a:	f890 2039 	ldrb.w	r2, [r0, #57]	; 0x39
 800540e:	2a22      	cmp	r2, #34	; 0x22
 8005410:	d104      	bne.n	0x800541c
 8005412:	6802      	ldr	r2, [r0, #0]
 8005414:	6953      	ldr	r3, [r2, #20]
 8005416:	f023 0340 	bic.w	r3, r3, #64	; 0x40
 800541a:	e7f0      	b.n	0x80053fe
 800541c:	f890 2039 	ldrb.w	r2, [r0, #57]	; 0x39
 8005420:	2a32      	cmp	r2, #50	; 0x32
 8005422:	d104      	bne.n	0x800542e
 8005424:	6802      	ldr	r2, [r0, #0]
 8005426:	6953      	ldr	r3, [r2, #20]
 8005428:	f023 03c0 	bic.w	r3, r3, #192	; 0xc0
 800542c:	e7e7      	b.n	0x80053fe
 800542e:	2200      	movs	r2, #0
 8005430:	f880 2038 	strb.w	r2, [r0, #56]	; 0x38
 8005434:	e7e7      	b.n	0x8005406
 8005436:	2002      	movs	r0, #2
 8005438:	4770      	bx	lr
 800543a:	f890 3038 	ldrb.w	r3, [r0, #56]	; 0x38
 800543e:	b082      	sub	sp, #8
 8005440:	2b01      	cmp	r3, #1
 8005442:	d032      	beq.n	0x80054aa
 8005444:	2301      	movs	r3, #1
 8005446:	f890 2039 	ldrb.w	r2, [r0, #57]	; 0x39
 800544a:	f880 3038 	strb.w	r3, [r0, #56]	; 0x38
 800544e:	2a12      	cmp	r2, #18
 8005450:	d108      	bne.n	0x8005464
 8005452:	6802      	ldr	r2, [r0, #0]
 8005454:	6953      	ldr	r3, [r2, #20]
 8005456:	f043 0380 	orr.w	r3, r3, #128	; 0x80
 800545a:	6153      	str	r3, [r2, #20]
 800545c:	2300      	movs	r3, #0
 800545e:	f880 3038 	strb.w	r3, [r0, #56]	; 0x38
 8005462:	e01f      	b.n	0x80054a4
 8005464:	f890 2039 	ldrb.w	r2, [r0, #57]	; 0x39
 8005468:	2a22      	cmp	r2, #34	; 0x22
 800546a:	d10a      	bne.n	0x8005482
 800546c:	6803      	ldr	r3, [r0, #0]
 800546e:	681a      	ldr	r2, [r3, #0]
 8005470:	9200      	str	r2, [sp, #0]
 8005472:	685a      	ldr	r2, [r3, #4]
 8005474:	9200      	str	r2, [sp, #0]
 8005476:	9a00      	ldr	r2, [sp, #0]
 8005478:	695a      	ldr	r2, [r3, #20]
 800547a:	f042 0240 	orr.w	r2, r2, #64	; 0x40
 800547e:	615a      	str	r2, [r3, #20]
 8005480:	e7ec      	b.n	0x800545c
 8005482:	f890 2039 	ldrb.w	r2, [r0, #57]	; 0x39
 8005486:	2a32      	cmp	r2, #50	; 0x32
 8005488:	d109      	bne.n	0x800549e
 800548a:	6803      	ldr	r3, [r0, #0]
 800548c:	681a      	ldr	r2, [r3, #0]
 800548e:	9201      	str	r2, [sp, #4]
 8005490:	685a      	ldr	r2, [r3, #4]
 8005492:	9201      	str	r2, [sp, #4]
 8005494:	9a01      	ldr	r2, [sp, #4]
 8005496:	695a      	ldr	r2, [r3, #20]
 8005498:	f042 02c0 	orr.w	r2, r2, #192	; 0xc0
 800549c:	e7ef      	b.n	0x800547e
 800549e:	2200      	movs	r2, #0
 80054a0:	f880 2038 	strb.w	r2, [r0, #56]	; 0x38
 80054a4:	4618      	mov	r0, r3
 80054a6:	b002      	add	sp, #8
 80054a8:	4770      	bx	lr
 80054aa:	2002      	movs	r0, #2
 80054ac:	e7fb      	b.n	0x80054a6
 80054ae:	6802      	ldr	r2, [r0, #0]
 80054b0:	b510      	push	{r4, lr}
 80054b2:	6953      	ldr	r3, [r2, #20]
 80054b4:	4604      	mov	r4, r0
 80054b6:	6b00      	ldr	r0, [r0, #48]	; 0x30
 80054b8:	f023 03c0 	bic.w	r3, r3, #192	; 0xc0
 80054bc:	6153      	str	r3, [r2, #20]
 80054be:	b108      	cbz	r0, 0x80054c4
 80054c0:	f7fd f9d8 	bl	0x8002874
 80054c4:	6b60      	ldr	r0, [r4, #52]	; 0x34
 80054c6:	b108      	cbz	r0, 0x80054cc
 80054c8:	f7fd f9d4 	bl	0x8002874
 80054cc:	2301      	movs	r3, #1
 80054ce:	2000      	movs	r0, #0
 80054d0:	f884 3039 	strb.w	r3, [r4, #57]	; 0x39
 80054d4:	bd10      	pop	{r4, pc}
 80054d6:	4770      	bx	lr
 80054d8:	b508      	push	{r3, lr}
 80054da:	6803      	ldr	r3, [r0, #0]
 80054dc:	6a42      	ldr	r2, [r0, #36]	; 0x24
 80054de:	681b      	ldr	r3, [r3, #0]
 80054e0:	f013 0320 	ands.w	r3, r3, #32
 80054e4:	d10a      	bne.n	0x80054fc
 80054e6:	84d3      	strh	r3, [r2, #38]	; 0x26
 80054e8:	6813      	ldr	r3, [r2, #0]
 80054ea:	695a      	ldr	r2, [r3, #20]
 80054ec:	f022 0280 	bic.w	r2, r2, #128	; 0x80
 80054f0:	615a      	str	r2, [r3, #20]
 80054f2:	68da      	ldr	r2, [r3, #12]
 80054f4:	f042 0240 	orr.w	r2, r2, #64	; 0x40
 80054f8:	60da      	str	r2, [r3, #12]
 80054fa:	bd08      	pop	{r3, pc}
 80054fc:	4610      	mov	r0, r2
 80054fe:	f7ff ffea 	bl	0x80054d6
 8005502:	bd08      	pop	{r3, pc}
 8005504:	4770      	bx	lr
 8005506:	b508      	push	{r3, lr}
 8005508:	6a40      	ldr	r0, [r0, #36]	; 0x24
 800550a:	f7ff fffb 	bl	0x8005504
 800550e:	bd08      	pop	{r3, pc}
 8005510:	4770      	bx	lr
 8005512:	6802      	ldr	r2, [r0, #0]
 8005514:	b508      	push	{r3, lr}
 8005516:	6812      	ldr	r2, [r2, #0]
 8005518:	6a43      	ldr	r3, [r0, #36]	; 0x24
 800551a:	f012 0220 	ands.w	r2, r2, #32
 800551e:	d10d      	bne.n	0x800553c
 8005520:	6819      	ldr	r1, [r3, #0]
 8005522:	85da      	strh	r2, [r3, #46]	; 0x2e
 8005524:	694a      	ldr	r2, [r1, #20]
 8005526:	f022 0240 	bic.w	r2, r2, #64	; 0x40
 800552a:	614a      	str	r2, [r1, #20]
 800552c:	f893 2039 	ldrb.w	r2, [r3, #57]	; 0x39
 8005530:	2a32      	cmp	r2, #50	; 0x32
 8005532:	bf0c      	ite	eq
 8005534:	2212      	moveq	r2, #18
 8005536:	2201      	movne	r2, #1
 8005538:	f883 2039 	strb.w	r2, [r3, #57]	; 0x39
 800553c:	4618      	mov	r0, r3
 800553e:	f7ff ffe7 	bl	0x8005510
 8005542:	bd08      	pop	{r3, pc}
 8005544:	4770      	bx	lr
 8005546:	b508      	push	{r3, lr}
 8005548:	6a40      	ldr	r0, [r0, #36]	; 0x24
 800554a:	f7ff fffb 	bl	0x8005544
 800554e:	bd08      	pop	{r3, pc}
 8005550:	4770      	bx	lr
 8005552:	b508      	push	{r3, lr}
 8005554:	2300      	movs	r3, #0
 8005556:	6a40      	ldr	r0, [r0, #36]	; 0x24
 8005558:	85c3      	strh	r3, [r0, #46]	; 0x2e
 800555a:	84c3      	strh	r3, [r0, #38]	; 0x26
 800555c:	2301      	movs	r3, #1
 800555e:	f880 3039 	strb.w	r3, [r0, #57]	; 0x39
 8005562:	6bc3      	ldr	r3, [r0, #60]	; 0x3c
 8005564:	f043 0310 	orr.w	r3, r3, #16
 8005568:	63c3      	str	r3, [r0, #60]	; 0x3c
 800556a:	f7ff fff1 	bl	0x8005550
 800556e:	bd08      	pop	{r3, pc}
 8005570:	6802      	ldr	r2, [r0, #0]
 8005572:	b513      	push	{r0, r1, r4, lr}
 8005574:	6811      	ldr	r1, [r2, #0]
 8005576:	4604      	mov	r4, r0
 8005578:	07c9      	lsls	r1, r1, #31
 800557a:	68d3      	ldr	r3, [r2, #12]
 800557c:	d505      	bpl.n	0x800558a
 800557e:	05db      	lsls	r3, r3, #23
 8005580:	bf42      	ittt	mi
 8005582:	6bc3      	ldrmi	r3, [r0, #60]	; 0x3c
 8005584:	f043 0301 	orrmi.w	r3, r3, #1
 8005588:	63c3      	strmi	r3, [r0, #60]	; 0x3c
 800558a:	6811      	ldr	r1, [r2, #0]
 800558c:	6953      	ldr	r3, [r2, #20]
 800558e:	0788      	lsls	r0, r1, #30
 8005590:	f003 0301 	and.w	r3, r3, #1
 8005594:	d504      	bpl.n	0x80055a0
 8005596:	b11b      	cbz	r3, 0x80055a0
 8005598:	6be1      	ldr	r1, [r4, #60]	; 0x3c
 800559a:	f041 0104 	orr.w	r1, r1, #4
 800559e:	63e1      	str	r1, [r4, #60]	; 0x3c
 80055a0:	6811      	ldr	r1, [r2, #0]
 80055a2:	0749      	lsls	r1, r1, #29
 80055a4:	d504      	bpl.n	0x80055b0
 80055a6:	b11b      	cbz	r3, 0x80055b0
 80055a8:	6be1      	ldr	r1, [r4, #60]	; 0x3c
 80055aa:	f041 0102 	orr.w	r1, r1, #2
 80055ae:	63e1      	str	r1, [r4, #60]	; 0x3c
 80055b0:	6811      	ldr	r1, [r2, #0]
 80055b2:	0708      	lsls	r0, r1, #28
 80055b4:	d504      	bpl.n	0x80055c0
 80055b6:	b11b      	cbz	r3, 0x80055c0
 80055b8:	6be3      	ldr	r3, [r4, #60]	; 0x3c
 80055ba:	f043 0308 	orr.w	r3, r3, #8
 80055be:	63e3      	str	r3, [r4, #60]	; 0x3c
 80055c0:	6811      	ldr	r1, [r2, #0]
 80055c2:	68d3      	ldr	r3, [r2, #12]
 80055c4:	0689      	lsls	r1, r1, #26
 80055c6:	d533      	bpl.n	0x8005630
 80055c8:	0698      	lsls	r0, r3, #26
 80055ca:	d531      	bpl.n	0x8005630
 80055cc:	f894 3039 	ldrb.w	r3, [r4, #57]	; 0x39
 80055d0:	f003 03ef 	and.w	r3, r3, #239	; 0xef
 80055d4:	2b22      	cmp	r3, #34	; 0x22
 80055d6:	d12b      	bne.n	0x8005630
 80055d8:	68a3      	ldr	r3, [r4, #8]
 80055da:	6921      	ldr	r1, [r4, #16]
 80055dc:	f5b3 5f80 	cmp.w	r3, #4096	; 0x1000
 80055e0:	6aa3      	ldr	r3, [r4, #40]	; 0x28
 80055e2:	d176      	bne.n	0x80056d2
 80055e4:	6852      	ldr	r2, [r2, #4]
 80055e6:	2900      	cmp	r1, #0
 80055e8:	d16f      	bne.n	0x80056ca
 80055ea:	f3c2 0208 	ubfx	r2, r2, #0, #9
 80055ee:	f823 2b02 	strh.w	r2, [r3], #2
 80055f2:	62a3      	str	r3, [r4, #40]	; 0x28
 80055f4:	8de3      	ldrh	r3, [r4, #46]	; 0x2e
 80055f6:	3b01      	subs	r3, #1
 80055f8:	b29b      	uxth	r3, r3
 80055fa:	85e3      	strh	r3, [r4, #46]	; 0x2e
 80055fc:	b9c3      	cbnz	r3, 0x8005630
 80055fe:	6823      	ldr	r3, [r4, #0]
 8005600:	4620      	mov	r0, r4
 8005602:	68da      	ldr	r2, [r3, #12]
 8005604:	f022 0220 	bic.w	r2, r2, #32
 8005608:	60da      	str	r2, [r3, #12]
 800560a:	f894 2039 	ldrb.w	r2, [r4, #57]	; 0x39
 800560e:	2a32      	cmp	r2, #50	; 0x32
 8005610:	bf17      	itett	ne
 8005612:	68da      	ldrne	r2, [r3, #12]
 8005614:	2312      	moveq	r3, #18
 8005616:	f422 7280 	bicne.w	r2, r2, #256	; 0x100
 800561a:	60da      	strne	r2, [r3, #12]
 800561c:	bf1f      	itttt	ne
 800561e:	695a      	ldrne	r2, [r3, #20]
 8005620:	f022 0201 	bicne.w	r2, r2, #1
 8005624:	615a      	strne	r2, [r3, #20]
 8005626:	2301      	movne	r3, #1
 8005628:	f884 3039 	strb.w	r3, [r4, #57]	; 0x39
 800562c:	f7ff ff70 	bl	0x8005510
 8005630:	6823      	ldr	r3, [r4, #0]
 8005632:	6819      	ldr	r1, [r3, #0]
 8005634:	68da      	ldr	r2, [r3, #12]
 8005636:	0609      	lsls	r1, r1, #24
 8005638:	d522      	bpl.n	0x8005680
 800563a:	0610      	lsls	r0, r2, #24
 800563c:	d520      	bpl.n	0x8005680
 800563e:	f894 2039 	ldrb.w	r2, [r4, #57]	; 0x39
 8005642:	f002 02df 	and.w	r2, r2, #223	; 0xdf
 8005646:	2a12      	cmp	r2, #18
 8005648:	d11a      	bne.n	0x8005680
 800564a:	68a2      	ldr	r2, [r4, #8]
 800564c:	f5b2 5f80 	cmp.w	r2, #4096	; 0x1000
 8005650:	6a22      	ldr	r2, [r4, #32]
 8005652:	d14c      	bne.n	0x80056ee
 8005654:	8811      	ldrh	r1, [r2, #0]
 8005656:	f3c1 0108 	ubfx	r1, r1, #0, #9
 800565a:	6059      	str	r1, [r3, #4]
 800565c:	6921      	ldr	r1, [r4, #16]
 800565e:	2900      	cmp	r1, #0
 8005660:	d143      	bne.n	0x80056ea
 8005662:	3202      	adds	r2, #2
 8005664:	6222      	str	r2, [r4, #32]
 8005666:	8ce2      	ldrh	r2, [r4, #38]	; 0x26
 8005668:	3a01      	subs	r2, #1
 800566a:	b292      	uxth	r2, r2
 800566c:	84e2      	strh	r2, [r4, #38]	; 0x26
 800566e:	b93a      	cbnz	r2, 0x8005680
 8005670:	68da      	ldr	r2, [r3, #12]
 8005672:	f022 0280 	bic.w	r2, r2, #128	; 0x80
 8005676:	60da      	str	r2, [r3, #12]
 8005678:	68da      	ldr	r2, [r3, #12]
 800567a:	f042 0240 	orr.w	r2, r2, #64	; 0x40
 800567e:	60da      	str	r2, [r3, #12]
 8005680:	6819      	ldr	r1, [r3, #0]
 8005682:	68da      	ldr	r2, [r3, #12]
 8005684:	0649      	lsls	r1, r1, #25
 8005686:	d510      	bpl.n	0x80056aa
 8005688:	0652      	lsls	r2, r2, #25
 800568a:	d50e      	bpl.n	0x80056aa
 800568c:	68da      	ldr	r2, [r3, #12]
 800568e:	4620      	mov	r0, r4
 8005690:	f022 0240 	bic.w	r2, r2, #64	; 0x40
 8005694:	60da      	str	r2, [r3, #12]
 8005696:	f894 3039 	ldrb.w	r3, [r4, #57]	; 0x39
 800569a:	2b32      	cmp	r3, #50	; 0x32
 800569c:	bf0c      	ite	eq
 800569e:	2322      	moveq	r3, #34	; 0x22
 80056a0:	2301      	movne	r3, #1
 80056a2:	f884 3039 	strb.w	r3, [r4, #57]	; 0x39
 80056a6:	f7ff ff16 	bl	0x80054d6
 80056aa:	6be3      	ldr	r3, [r4, #60]	; 0x3c
 80056ac:	b15b      	cbz	r3, 0x80056c6
 80056ae:	6823      	ldr	r3, [r4, #0]
 80056b0:	4620      	mov	r0, r4
 80056b2:	681a      	ldr	r2, [r3, #0]
 80056b4:	9201      	str	r2, [sp, #4]
 80056b6:	685b      	ldr	r3, [r3, #4]
 80056b8:	9301      	str	r3, [sp, #4]
 80056ba:	9b01      	ldr	r3, [sp, #4]
 80056bc:	2301      	movs	r3, #1
 80056be:	f884 3039 	strb.w	r3, [r4, #57]	; 0x39
 80056c2:	f7ff ff45 	bl	0x8005550
 80056c6:	b002      	add	sp, #8
 80056c8:	bd10      	pop	{r4, pc}
 80056ca:	b2d2      	uxtb	r2, r2
 80056cc:	f823 2b01 	strh.w	r2, [r3], #1
 80056d0:	e78f      	b.n	0x80055f2
 80056d2:	b921      	cbnz	r1, 0x80056de
 80056d4:	1c59      	adds	r1, r3, #1
 80056d6:	6852      	ldr	r2, [r2, #4]
 80056d8:	62a1      	str	r1, [r4, #40]	; 0x28
 80056da:	701a      	strb	r2, [r3, #0]
 80056dc:	e78a      	b.n	0x80055f4
 80056de:	6852      	ldr	r2, [r2, #4]
 80056e0:	1c59      	adds	r1, r3, #1
 80056e2:	62a1      	str	r1, [r4, #40]	; 0x28
 80056e4:	f002 027f 	and.w	r2, r2, #127	; 0x7f
 80056e8:	e7f7      	b.n	0x80056da
 80056ea:	3201      	adds	r2, #1
 80056ec:	e7ba      	b.n	0x8005664
 80056ee:	1c51      	adds	r1, r2, #1
 80056f0:	6221      	str	r1, [r4, #32]
 80056f2:	7812      	ldrb	r2, [r2, #0]
 80056f4:	605a      	str	r2, [r3, #4]
 80056f6:	e7b6      	b.n	0x8005666
 80056f8:	f890 3038 	ldrb.w	r3, [r0, #56]	; 0x38
 80056fc:	2b01      	cmp	r3, #1
 80056fe:	f04f 0302 	mov.w	r3, #2
 8005702:	d00c      	beq.n	0x800571e
 8005704:	6802      	ldr	r2, [r0, #0]
 8005706:	f880 3039 	strb.w	r3, [r0, #57]	; 0x39
 800570a:	68d3      	ldr	r3, [r2, #12]
 800570c:	f043 0301 	orr.w	r3, r3, #1
 8005710:	60d3      	str	r3, [r2, #12]
 8005712:	2301      	movs	r3, #1
 8005714:	f880 3039 	strb.w	r3, [r0, #57]	; 0x39
 8005718:	2300      	movs	r3, #0
 800571a:	f880 3038 	strb.w	r3, [r0, #56]	; 0x38
 800571e:	4618      	mov	r0, r3
 8005720:	4770      	bx	lr
 8005722:	f890 3038 	ldrb.w	r3, [r0, #56]	; 0x38
 8005726:	2b01      	cmp	r3, #1
 8005728:	f04f 0302 	mov.w	r3, #2
 800572c:	d00c      	beq.n	0x8005748
 800572e:	6802      	ldr	r2, [r0, #0]
 8005730:	f880 3039 	strb.w	r3, [r0, #57]	; 0x39
 8005734:	68d3      	ldr	r3, [r2, #12]
 8005736:	f043 0302 	orr.w	r3, r3, #2
 800573a:	60d3      	str	r3, [r2, #12]
 800573c:	2301      	movs	r3, #1
 800573e:	f880 3039 	strb.w	r3, [r0, #57]	; 0x39
 8005742:	2300      	movs	r3, #0
 8005744:	f880 3038 	strb.w	r3, [r0, #56]	; 0x38
 8005748:	4618      	mov	r0, r3
 800574a:	4770      	bx	lr
 800574c:	f890 3038 	ldrb.w	r3, [r0, #56]	; 0x38
 8005750:	2b01      	cmp	r3, #1
 8005752:	f04f 0302 	mov.w	r3, #2
 8005756:	d00c      	beq.n	0x8005772
 8005758:	6802      	ldr	r2, [r0, #0]
 800575a:	f880 3039 	strb.w	r3, [r0, #57]	; 0x39
 800575e:	68d3      	ldr	r3, [r2, #12]
 8005760:	f023 0302 	bic.w	r3, r3, #2
 8005764:	60d3      	str	r3, [r2, #12]
 8005766:	2301      	movs	r3, #1
 8005768:	f880 3039 	strb.w	r3, [r0, #57]	; 0x39
 800576c:	2300      	movs	r3, #0
 800576e:	f880 3038 	strb.w	r3, [r0, #56]	; 0x38
 8005772:	4618      	mov	r0, r3
 8005774:	4770      	bx	lr
 8005776:	f890 3038 	ldrb.w	r3, [r0, #56]	; 0x38
 800577a:	2b01      	cmp	r3, #1
 800577c:	f04f 0302 	mov.w	r3, #2
 8005780:	d00e      	beq.n	0x80057a0
 8005782:	6802      	ldr	r2, [r0, #0]
 8005784:	f880 3039 	strb.w	r3, [r0, #57]	; 0x39
 8005788:	68d3      	ldr	r3, [r2, #12]
 800578a:	f023 030c 	bic.w	r3, r3, #12
 800578e:	f043 0308 	orr.w	r3, r3, #8
 8005792:	60d3      	str	r3, [r2, #12]
 8005794:	2301      	movs	r3, #1
 8005796:	f880 3039 	strb.w	r3, [r0, #57]	; 0x39
 800579a:	2300      	movs	r3, #0
 800579c:	f880 3038 	strb.w	r3, [r0, #56]	; 0x38
 80057a0:	4618      	mov	r0, r3
 80057a2:	4770      	bx	lr
 80057a4:	f890 3038 	ldrb.w	r3, [r0, #56]	; 0x38
 80057a8:	2b01      	cmp	r3, #1
 80057aa:	f04f 0302 	mov.w	r3, #2
 80057ae:	d00e      	beq.n	0x80057ce
 80057b0:	6802      	ldr	r2, [r0, #0]
 80057b2:	f880 3039 	strb.w	r3, [r0, #57]	; 0x39
 80057b6:	68d3      	ldr	r3, [r2, #12]
 80057b8:	f023 030c 	bic.w	r3, r3, #12
 80057bc:	f043 0304 	orr.w	r3, r3, #4
 80057c0:	60d3      	str	r3, [r2, #12]
 80057c2:	2301      	movs	r3, #1
 80057c4:	f880 3039 	strb.w	r3, [r0, #57]	; 0x39
 80057c8:	2300      	movs	r3, #0
 80057ca:	f880 3038 	strb.w	r3, [r0, #56]	; 0x38
 80057ce:	4618      	mov	r0, r3
 80057d0:	4770      	bx	lr
 80057d2:	f890 0039 	ldrb.w	r0, [r0, #57]	; 0x39
 80057d6:	4770      	bx	lr
 80057d8:	6bc0      	ldr	r0, [r0, #60]	; 0x3c
 80057da:	4770      	bx	lr
 80057dc:	b084      	sub	sp, #16
 80057de:	a801      	add	r0, sp, #4
 80057e0:	e880 000e 	stmia.w	r0, {r1, r2, r3}
 80057e4:	b004      	add	sp, #16
 80057e6:	2000      	movs	r0, #0
 80057e8:	4770      	bx	lr
 80057ea:	f8b0 3040 	ldrh.w	r3, [r0, #64]	; 0x40
 80057ee:	b29b      	uxth	r3, r3
 80057f0:	f443 433d 	orr.w	r3, r3, #48384	; 0xbd00
 80057f4:	f8a0 3040 	strh.w	r3, [r0, #64]	; 0x40
 80057f8:	2000      	movs	r0, #0
 80057fa:	4770      	bx	lr
 80057fc:	f8b0 3040 	ldrh.w	r3, [r0, #64]	; 0x40
 8005800:	f423 5374 	bic.w	r3, r3, #15616	; 0x3d00
 8005804:	045b      	lsls	r3, r3, #17
 8005806:	0c5b      	lsrs	r3, r3, #17
 8005808:	f8a0 3040 	strh.w	r3, [r0, #64]	; 0x40
 800580c:	2000      	movs	r0, #0
 800580e:	4770      	bx	lr
 8005810:	2000      	movs	r0, #0
 8005812:	4770      	bx	lr
 8005814:	b084      	sub	sp, #16
 8005816:	b510      	push	{r4, lr}
 8005818:	ac03      	add	r4, sp, #12
 800581a:	e884 000e 	stmia.w	r4, {r1, r2, r3}
 800581e:	e8bd 4010 	ldmia.w	sp!, {r4, lr}
 8005822:	2301      	movs	r3, #1
 8005824:	f8a0 3040 	strh.w	r3, [r0, #64]	; 0x40
 8005828:	2300      	movs	r3, #0
 800582a:	b004      	add	sp, #16
 800582c:	f8a0 3040 	strh.w	r3, [r0, #64]	; 0x40
 8005830:	f8a0 3044 	strh.w	r3, [r0, #68]	; 0x44
 8005834:	f8a0 3050 	strh.w	r3, [r0, #80]	; 0x50
 8005838:	4618      	mov	r0, r3
 800583a:	4770      	bx	lr
 800583c:	2000      	movs	r0, #0
 800583e:	4770      	bx	lr
 8005840:	2000      	movs	r0, #0
 8005842:	4770      	bx	lr
 8005844:	b570      	push	{r4, r5, r6, lr}
 8005846:	78cb      	ldrb	r3, [r1, #3]
 8005848:	780a      	ldrb	r2, [r1, #0]
 800584a:	2b03      	cmp	r3, #3
 800584c:	d80f      	bhi.n	0x800586e
 800584e:	e8df f003 	tbb	[pc, r3]
 8005852:	6402      	str	r2, [r0, #64]	; 0x40
 8005854:	5950      	ldr	r0, [r2, r5]
 8005856:	f830 3022 	ldrh.w	r3, [r0, r2, lsl #2]
 800585a:	f423 43ec 	bic.w	r3, r3, #30208	; 0x7600
 800585e:	f023 0370 	bic.w	r3, r3, #112	; 0x70
 8005862:	041b      	lsls	r3, r3, #16
 8005864:	0c1b      	lsrs	r3, r3, #16
 8005866:	f443 7300 	orr.w	r3, r3, #512	; 0x200
 800586a:	f820 3022 	strh.w	r3, [r0, r2, lsl #2]
 800586e:	f640 730f 	movw	r3, #3855	; 0xf0f
 8005872:	780c      	ldrb	r4, [r1, #0]
 8005874:	f830 2024 	ldrh.w	r2, [r0, r4, lsl #2]
 8005878:	f444 4500 	orr.w	r5, r4, #32768	; 0x8000
 800587c:	f045 0580 	orr.w	r5, r5, #128	; 0x80
 8005880:	401a      	ands	r2, r3
 8005882:	432a      	orrs	r2, r5
 8005884:	f820 2024 	strh.w	r2, [r0, r4, lsl #2]
 8005888:	7a8a      	ldrb	r2, [r1, #10]
 800588a:	780d      	ldrb	r5, [r1, #0]
 800588c:	2a00      	cmp	r2, #0
 800588e:	f040 8098 	bne.w	0x80059c2
 8005892:	784c      	ldrb	r4, [r1, #1]
 8005894:	888a      	ldrh	r2, [r1, #4]
 8005896:	2c00      	cmp	r4, #0
 8005898:	d04a      	beq.n	0x8005930
 800589a:	f8b0 4050 	ldrh.w	r4, [r0, #80]	; 0x50
 800589e:	0852      	lsrs	r2, r2, #1
 80058a0:	b2a4      	uxth	r4, r4
 80058a2:	eb04 04c5 	add.w	r4, r4, r5, lsl #3
 80058a6:	eb00 0444 	add.w	r4, r0, r4, lsl #1
 80058aa:	0052      	lsls	r2, r2, #1
 80058ac:	f8c4 2400 	str.w	r2, [r4, #1024]	; 0x400
 80058b0:	780c      	ldrb	r4, [r1, #0]
 80058b2:	f830 2024 	ldrh.w	r2, [r0, r4, lsl #2]
 80058b6:	0652      	lsls	r2, r2, #25
 80058b8:	d508      	bpl.n	0x80058cc
 80058ba:	f830 2024 	ldrh.w	r2, [r0, r4, lsl #2]
 80058be:	4013      	ands	r3, r2
 80058c0:	f443 4300 	orr.w	r3, r3, #32768	; 0x8000
 80058c4:	f043 03c0 	orr.w	r3, r3, #192	; 0xc0
 80058c8:	f820 3024 	strh.w	r3, [r0, r4, lsl #2]
 80058cc:	780a      	ldrb	r2, [r1, #0]
 80058ce:	f830 3022 	ldrh.w	r3, [r0, r2, lsl #2]
 80058d2:	f423 43e0 	bic.w	r3, r3, #28672	; 0x7000
 80058d6:	f023 0340 	bic.w	r3, r3, #64	; 0x40
 80058da:	041b      	lsls	r3, r3, #16
 80058dc:	0c1b      	lsrs	r3, r3, #16
 80058de:	f083 0320 	eor.w	r3, r3, #32
 80058e2:	f443 4300 	orr.w	r3, r3, #32768	; 0x8000
 80058e6:	f043 0380 	orr.w	r3, r3, #128	; 0x80
 80058ea:	f820 3022 	strh.w	r3, [r0, r2, lsl #2]
 80058ee:	2000      	movs	r0, #0
 80058f0:	bd70      	pop	{r4, r5, r6, pc}
 80058f2:	f830 3022 	ldrh.w	r3, [r0, r2, lsl #2]
 80058f6:	f423 43ec 	bic.w	r3, r3, #30208	; 0x7600
 80058fa:	f023 0370 	bic.w	r3, r3, #112	; 0x70
 80058fe:	041b      	lsls	r3, r3, #16
 8005900:	0c1b      	lsrs	r3, r3, #16
 8005902:	e7b2      	b.n	0x800586a
 8005904:	f830 3022 	ldrh.w	r3, [r0, r2, lsl #2]
 8005908:	f423 43ec 	bic.w	r3, r3, #30208	; 0x7600
 800590c:	f023 0370 	bic.w	r3, r3, #112	; 0x70
 8005910:	041b      	lsls	r3, r3, #16
 8005912:	0c1b      	lsrs	r3, r3, #16
 8005914:	f443 63c0 	orr.w	r3, r3, #1536	; 0x600
 8005918:	e7a7      	b.n	0x800586a
 800591a:	f830 3022 	ldrh.w	r3, [r0, r2, lsl #2]
 800591e:	f423 43ec 	bic.w	r3, r3, #30208	; 0x7600
 8005922:	f023 0370 	bic.w	r3, r3, #112	; 0x70
 8005926:	041b      	lsls	r3, r3, #16
 8005928:	0c1b      	lsrs	r3, r3, #16
 800592a:	f443 6380 	orr.w	r3, r3, #1024	; 0x400
 800592e:	e79c      	b.n	0x800586a
 8005930:	f8b0 3050 	ldrh.w	r3, [r0, #80]	; 0x50
 8005934:	0852      	lsrs	r2, r2, #1
 8005936:	b29b      	uxth	r3, r3
 8005938:	eb03 03c5 	add.w	r3, r3, r5, lsl #3
 800593c:	3304      	adds	r3, #4
 800593e:	0052      	lsls	r2, r2, #1
 8005940:	f500 6480 	add.w	r4, r0, #1024	; 0x400
 8005944:	f844 2013 	str.w	r2, [r4, r3, lsl #1]
 8005948:	f8b0 2050 	ldrh.w	r2, [r0, #80]	; 0x50
 800594c:	780b      	ldrb	r3, [r1, #0]
 800594e:	690d      	ldr	r5, [r1, #16]
 8005950:	b292      	uxth	r2, r2
 8005952:	eb02 02c3 	add.w	r2, r2, r3, lsl #3
 8005956:	2d3e      	cmp	r5, #62	; 0x3e
 8005958:	f102 0206 	add.w	r2, r2, #6
 800595c:	d929      	bls.n	0x80059b2
 800595e:	f3c5 164f 	ubfx	r6, r5, #5, #16
 8005962:	06eb      	lsls	r3, r5, #27
 8005964:	bf04      	itt	eq
 8005966:	f106 33ff 	addeq.w	r3, r6, #4294967295	; 0xffffffff
 800596a:	b29e      	uxtheq	r6, r3
 800596c:	4b6e      	ldr	r3, [pc, #440]	; (0x8005b28)
 800596e:	ea43 2386 	orr.w	r3, r3, r6, lsl #10
 8005972:	b29b      	uxth	r3, r3
 8005974:	f844 3012 	str.w	r3, [r4, r2, lsl #1]
 8005978:	780a      	ldrb	r2, [r1, #0]
 800597a:	f830 3022 	ldrh.w	r3, [r0, r2, lsl #2]
 800597e:	045e      	lsls	r6, r3, #17
 8005980:	d50b      	bpl.n	0x800599a
 8005982:	f830 3022 	ldrh.w	r3, [r0, r2, lsl #2]
 8005986:	f023 03f0 	bic.w	r3, r3, #240	; 0xf0
 800598a:	051b      	lsls	r3, r3, #20
 800598c:	0d1b      	lsrs	r3, r3, #20
 800598e:	f443 4340 	orr.w	r3, r3, #49152	; 0xc000
 8005992:	f043 0380 	orr.w	r3, r3, #128	; 0x80
 8005996:	f820 3022 	strh.w	r3, [r0, r2, lsl #2]
 800599a:	780a      	ldrb	r2, [r1, #0]
 800599c:	f830 3022 	ldrh.w	r3, [r0, r2, lsl #2]
 80059a0:	f423 4380 	bic.w	r3, r3, #16384	; 0x4000
 80059a4:	f023 0370 	bic.w	r3, r3, #112	; 0x70
 80059a8:	041b      	lsls	r3, r3, #16
 80059aa:	0c1b      	lsrs	r3, r3, #16
 80059ac:	f483 5340 	eor.w	r3, r3, #12288	; 0x3000
 80059b0:	e797      	b.n	0x80058e2
 80059b2:	f3c5 034f 	ubfx	r3, r5, #1, #16
 80059b6:	07ed      	lsls	r5, r5, #31
 80059b8:	bf44      	itt	mi
 80059ba:	3301      	addmi	r3, #1
 80059bc:	b29b      	uxthmi	r3, r3
 80059be:	029b      	lsls	r3, r3, #10
 80059c0:	e7d7      	b.n	0x8005972
 80059c2:	f830 2025 	ldrh.w	r2, [r0, r5, lsl #2]
 80059c6:	f422 72f8 	bic.w	r2, r2, #496	; 0x1f0
 80059ca:	0512      	lsls	r2, r2, #20
 80059cc:	0d12      	lsrs	r2, r2, #20
 80059ce:	f442 4201 	orr.w	r2, r2, #33024	; 0x8100
 80059d2:	f042 0280 	orr.w	r2, r2, #128	; 0x80
 80059d6:	f820 2025 	strh.w	r2, [r0, r5, lsl #2]
 80059da:	f8b0 2050 	ldrh.w	r2, [r0, #80]	; 0x50
 80059de:	780c      	ldrb	r4, [r1, #0]
 80059e0:	b292      	uxth	r2, r2
 80059e2:	eb02 02c4 	add.w	r2, r2, r4, lsl #3
 80059e6:	88cc      	ldrh	r4, [r1, #6]
 80059e8:	f500 6580 	add.w	r5, r0, #1024	; 0x400
 80059ec:	0864      	lsrs	r4, r4, #1
 80059ee:	0064      	lsls	r4, r4, #1
 80059f0:	f845 4012 	str.w	r4, [r5, r2, lsl #1]
 80059f4:	f8b0 2050 	ldrh.w	r2, [r0, #80]	; 0x50
 80059f8:	780c      	ldrb	r4, [r1, #0]
 80059fa:	b292      	uxth	r2, r2
 80059fc:	eb02 02c4 	add.w	r2, r2, r4, lsl #3
 8005a00:	890c      	ldrh	r4, [r1, #8]
 8005a02:	3204      	adds	r2, #4
 8005a04:	0864      	lsrs	r4, r4, #1
 8005a06:	0064      	lsls	r4, r4, #1
 8005a08:	f845 4012 	str.w	r4, [r5, r2, lsl #1]
 8005a0c:	784a      	ldrb	r2, [r1, #1]
 8005a0e:	780c      	ldrb	r4, [r1, #0]
 8005a10:	2a00      	cmp	r2, #0
 8005a12:	d147      	bne.n	0x8005aa4
 8005a14:	f830 2024 	ldrh.w	r2, [r0, r4, lsl #2]
 8005a18:	0455      	lsls	r5, r2, #17
 8005a1a:	d508      	bpl.n	0x8005a2e
 8005a1c:	f830 2024 	ldrh.w	r2, [r0, r4, lsl #2]
 8005a20:	4013      	ands	r3, r2
 8005a22:	f443 4340 	orr.w	r3, r3, #49152	; 0xc000
 8005a26:	f043 0380 	orr.w	r3, r3, #128	; 0x80
 8005a2a:	f820 3024 	strh.w	r3, [r0, r4, lsl #2]
 8005a2e:	780a      	ldrb	r2, [r1, #0]
 8005a30:	f830 3022 	ldrh.w	r3, [r0, r2, lsl #2]
 8005a34:	065c      	lsls	r4, r3, #25
 8005a36:	d50b      	bpl.n	0x8005a50
 8005a38:	f830 3022 	ldrh.w	r3, [r0, r2, lsl #2]
 8005a3c:	f023 03f0 	bic.w	r3, r3, #240	; 0xf0
 8005a40:	051b      	lsls	r3, r3, #20
 8005a42:	0d1b      	lsrs	r3, r3, #20
 8005a44:	f443 4300 	orr.w	r3, r3, #32768	; 0x8000
 8005a48:	f043 03c0 	orr.w	r3, r3, #192	; 0xc0
 8005a4c:	f820 3022 	strh.w	r3, [r0, r2, lsl #2]
 8005a50:	780a      	ldrb	r2, [r1, #0]
 8005a52:	f830 3022 	ldrh.w	r3, [r0, r2, lsl #2]
 8005a56:	f023 03f0 	bic.w	r3, r3, #240	; 0xf0
 8005a5a:	051b      	lsls	r3, r3, #20
 8005a5c:	0d1b      	lsrs	r3, r3, #20
 8005a5e:	f443 4300 	orr.w	r3, r3, #32768	; 0x8000
 8005a62:	f043 03c0 	orr.w	r3, r3, #192	; 0xc0
 8005a66:	f820 3022 	strh.w	r3, [r0, r2, lsl #2]
 8005a6a:	f248 0280 	movw	r2, #32896	; 0x8080
 8005a6e:	780c      	ldrb	r4, [r1, #0]
 8005a70:	f830 3024 	ldrh.w	r3, [r0, r4, lsl #2]
 8005a74:	f423 4380 	bic.w	r3, r3, #16384	; 0x4000
 8005a78:	f023 0370 	bic.w	r3, r3, #112	; 0x70
 8005a7c:	041b      	lsls	r3, r3, #16
 8005a7e:	0c1b      	lsrs	r3, r3, #16
 8005a80:	f483 5340 	eor.w	r3, r3, #12288	; 0x3000
 8005a84:	4313      	orrs	r3, r2
 8005a86:	f820 3024 	strh.w	r3, [r0, r4, lsl #2]
 8005a8a:	7809      	ldrb	r1, [r1, #0]
 8005a8c:	f830 3021 	ldrh.w	r3, [r0, r1, lsl #2]
 8005a90:	f423 43e0 	bic.w	r3, r3, #28672	; 0x7000
 8005a94:	f023 0340 	bic.w	r3, r3, #64	; 0x40
 8005a98:	041b      	lsls	r3, r3, #16
 8005a9a:	0c1b      	lsrs	r3, r3, #16
 8005a9c:	4313      	orrs	r3, r2
 8005a9e:	f820 3021 	strh.w	r3, [r0, r1, lsl #2]
 8005aa2:	e724      	b.n	0x80058ee
 8005aa4:	f830 2024 	ldrh.w	r2, [r0, r4, lsl #2]
 8005aa8:	0452      	lsls	r2, r2, #17
 8005aaa:	d508      	bpl.n	0x8005abe
 8005aac:	f830 2024 	ldrh.w	r2, [r0, r4, lsl #2]
 8005ab0:	4013      	ands	r3, r2
 8005ab2:	f443 4340 	orr.w	r3, r3, #49152	; 0xc000
 8005ab6:	f043 0380 	orr.w	r3, r3, #128	; 0x80
 8005aba:	f820 3024 	strh.w	r3, [r0, r4, lsl #2]
 8005abe:	780a      	ldrb	r2, [r1, #0]
 8005ac0:	f830 3022 	ldrh.w	r3, [r0, r2, lsl #2]
 8005ac4:	065b      	lsls	r3, r3, #25
 8005ac6:	d50b      	bpl.n	0x8005ae0
 8005ac8:	f830 3022 	ldrh.w	r3, [r0, r2, lsl #2]
 8005acc:	f023 03f0 	bic.w	r3, r3, #240	; 0xf0
 8005ad0:	051b      	lsls	r3, r3, #20
 8005ad2:	0d1b      	lsrs	r3, r3, #20
 8005ad4:	f443 4300 	orr.w	r3, r3, #32768	; 0x8000
 8005ad8:	f043 03c0 	orr.w	r3, r3, #192	; 0xc0
 8005adc:	f820 3022 	strh.w	r3, [r0, r2, lsl #2]
 8005ae0:	780a      	ldrb	r2, [r1, #0]
 8005ae2:	f830 3022 	ldrh.w	r3, [r0, r2, lsl #2]
 8005ae6:	f023 03f0 	bic.w	r3, r3, #240	; 0xf0
 8005aea:	051b      	lsls	r3, r3, #20
 8005aec:	0d1b      	lsrs	r3, r3, #20
 8005aee:	f443 4340 	orr.w	r3, r3, #49152	; 0xc000
 8005af2:	f043 0380 	orr.w	r3, r3, #128	; 0x80
 8005af6:	f820 3022 	strh.w	r3, [r0, r2, lsl #2]
 8005afa:	f248 0280 	movw	r2, #32896	; 0x8080
 8005afe:	780c      	ldrb	r4, [r1, #0]
 8005b00:	f830 3024 	ldrh.w	r3, [r0, r4, lsl #2]
 8005b04:	f423 43e0 	bic.w	r3, r3, #28672	; 0x7000
 8005b08:	f023 0340 	bic.w	r3, r3, #64	; 0x40
 8005b0c:	041b      	lsls	r3, r3, #16
 8005b0e:	0c1b      	lsrs	r3, r3, #16
 8005b10:	4313      	orrs	r3, r2
 8005b12:	f820 3024 	strh.w	r3, [r0, r4, lsl #2]
 8005b16:	7809      	ldrb	r1, [r1, #0]
 8005b18:	f830 3021 	ldrh.w	r3, [r0, r1, lsl #2]
 8005b1c:	f423 4380 	bic.w	r3, r3, #16384	; 0x4000
 8005b20:	f023 0370 	bic.w	r3, r3, #112	; 0x70
 8005b24:	e7b8      	b.n	0x8005a98
 8005b26:	bf00      	nop
 8005b28:	8000      	strh	r0, [r0, #0]
 8005b2a:	ffff b510 	vsli.32	d27, d0, #31
 8005b2e:	7a8c      	ldrb	r4, [r1, #10]
 8005b30:	784a      	ldrb	r2, [r1, #1]
 8005b32:	780b      	ldrb	r3, [r1, #0]
 8005b34:	bbcc      	cbnz	r4, 0x8005baa
 8005b36:	b302      	cbz	r2, 0x8005b7a
 8005b38:	f830 2023 	ldrh.w	r2, [r0, r3, lsl #2]
 8005b3c:	0652      	lsls	r2, r2, #25
 8005b3e:	d50b      	bpl.n	0x8005b58
 8005b40:	f830 2023 	ldrh.w	r2, [r0, r3, lsl #2]
 8005b44:	f022 02f0 	bic.w	r2, r2, #240	; 0xf0
 8005b48:	0512      	lsls	r2, r2, #20
 8005b4a:	0d12      	lsrs	r2, r2, #20
 8005b4c:	f442 4200 	orr.w	r2, r2, #32768	; 0x8000
 8005b50:	f042 02c0 	orr.w	r2, r2, #192	; 0xc0
 8005b54:	f820 2023 	strh.w	r2, [r0, r3, lsl #2]
 8005b58:	780a      	ldrb	r2, [r1, #0]
 8005b5a:	f830 3022 	ldrh.w	r3, [r0, r2, lsl #2]
 8005b5e:	f423 43e0 	bic.w	r3, r3, #28672	; 0x7000
 8005b62:	f023 0340 	bic.w	r3, r3, #64	; 0x40
 8005b66:	041b      	lsls	r3, r3, #16
 8005b68:	0c1b      	lsrs	r3, r3, #16
 8005b6a:	f443 4300 	orr.w	r3, r3, #32768	; 0x8000
 8005b6e:	f043 0380 	orr.w	r3, r3, #128	; 0x80
 8005b72:	f820 3022 	strh.w	r3, [r0, r2, lsl #2]
 8005b76:	2000      	movs	r0, #0
 8005b78:	bd10      	pop	{r4, pc}
 8005b7a:	f830 2023 	ldrh.w	r2, [r0, r3, lsl #2]
 8005b7e:	0454      	lsls	r4, r2, #17
 8005b80:	d50b      	bpl.n	0x8005b9a
 8005b82:	f830 2023 	ldrh.w	r2, [r0, r3, lsl #2]
 8005b86:	f022 02f0 	bic.w	r2, r2, #240	; 0xf0
 8005b8a:	0512      	lsls	r2, r2, #20
 8005b8c:	0d12      	lsrs	r2, r2, #20
 8005b8e:	f442 4240 	orr.w	r2, r2, #49152	; 0xc000
 8005b92:	f042 0280 	orr.w	r2, r2, #128	; 0x80
 8005b96:	f820 2023 	strh.w	r2, [r0, r3, lsl #2]
 8005b9a:	780a      	ldrb	r2, [r1, #0]
 8005b9c:	f830 3022 	ldrh.w	r3, [r0, r2, lsl #2]
 8005ba0:	f423 4380 	bic.w	r3, r3, #16384	; 0x4000
 8005ba4:	f023 0370 	bic.w	r3, r3, #112	; 0x70
 8005ba8:	e7dd      	b.n	0x8005b66
 8005baa:	2a00      	cmp	r2, #0
 8005bac:	d148      	bne.n	0x8005c40
 8005bae:	f830 2023 	ldrh.w	r2, [r0, r3, lsl #2]
 8005bb2:	0452      	lsls	r2, r2, #17
 8005bb4:	d50b      	bpl.n	0x8005bce
 8005bb6:	f830 2023 	ldrh.w	r2, [r0, r3, lsl #2]
 8005bba:	f022 02f0 	bic.w	r2, r2, #240	; 0xf0
 8005bbe:	0512      	lsls	r2, r2, #20
 8005bc0:	0d12      	lsrs	r2, r2, #20
 8005bc2:	f442 4240 	orr.w	r2, r2, #49152	; 0xc000
 8005bc6:	f042 0280 	orr.w	r2, r2, #128	; 0x80
 8005bca:	f820 2023 	strh.w	r2, [r0, r3, lsl #2]
 8005bce:	780a      	ldrb	r2, [r1, #0]
 8005bd0:	f830 3022 	ldrh.w	r3, [r0, r2, lsl #2]
 8005bd4:	065c      	lsls	r4, r3, #25
 8005bd6:	d50b      	bpl.n	0x8005bf0
 8005bd8:	f830 3022 	ldrh.w	r3, [r0, r2, lsl #2]
 8005bdc:	f023 03f0 	bic.w	r3, r3, #240	; 0xf0
 8005be0:	051b      	lsls	r3, r3, #20
 8005be2:	0d1b      	lsrs	r3, r3, #20
 8005be4:	f443 4300 	orr.w	r3, r3, #32768	; 0x8000
 8005be8:	f043 03c0 	orr.w	r3, r3, #192	; 0xc0
 8005bec:	f820 3022 	strh.w	r3, [r0, r2, lsl #2]
 8005bf0:	780a      	ldrb	r2, [r1, #0]
 8005bf2:	f830 3022 	ldrh.w	r3, [r0, r2, lsl #2]
 8005bf6:	f023 03f0 	bic.w	r3, r3, #240	; 0xf0
 8005bfa:	051b      	lsls	r3, r3, #20
 8005bfc:	0d1b      	lsrs	r3, r3, #20
 8005bfe:	f443 4300 	orr.w	r3, r3, #32768	; 0x8000
 8005c02:	f043 03c0 	orr.w	r3, r3, #192	; 0xc0
 8005c06:	f820 3022 	strh.w	r3, [r0, r2, lsl #2]
 8005c0a:	f248 0280 	movw	r2, #32896	; 0x8080
 8005c0e:	780c      	ldrb	r4, [r1, #0]
 8005c10:	f830 3024 	ldrh.w	r3, [r0, r4, lsl #2]
 8005c14:	f423 4380 	bic.w	r3, r3, #16384	; 0x4000
 8005c18:	f023 0370 	bic.w	r3, r3, #112	; 0x70
 8005c1c:	041b      	lsls	r3, r3, #16
 8005c1e:	0c1b      	lsrs	r3, r3, #16
 8005c20:	4313      	orrs	r3, r2
 8005c22:	f820 3024 	strh.w	r3, [r0, r4, lsl #2]
 8005c26:	7809      	ldrb	r1, [r1, #0]
 8005c28:	f830 3021 	ldrh.w	r3, [r0, r1, lsl #2]
 8005c2c:	f423 43e0 	bic.w	r3, r3, #28672	; 0x7000
 8005c30:	f023 0340 	bic.w	r3, r3, #64	; 0x40
 8005c34:	041b      	lsls	r3, r3, #16
 8005c36:	0c1b      	lsrs	r3, r3, #16
 8005c38:	4313      	orrs	r3, r2
 8005c3a:	f820 3021 	strh.w	r3, [r0, r1, lsl #2]
 8005c3e:	e79a      	b.n	0x8005b76
 8005c40:	f830 2023 	ldrh.w	r2, [r0, r3, lsl #2]
 8005c44:	0452      	lsls	r2, r2, #17
 8005c46:	d50b      	bpl.n	0x8005c60
 8005c48:	f830 2023 	ldrh.w	r2, [r0, r3, lsl #2]
 8005c4c:	f022 02f0 	bic.w	r2, r2, #240	; 0xf0
 8005c50:	0512      	lsls	r2, r2, #20
 8005c52:	0d12      	lsrs	r2, r2, #20
 8005c54:	f442 4240 	orr.w	r2, r2, #49152	; 0xc000
 8005c58:	f042 0280 	orr.w	r2, r2, #128	; 0x80
 8005c5c:	f820 2023 	strh.w	r2, [r0, r3, lsl #2]
 8005c60:	780a      	ldrb	r2, [r1, #0]
 8005c62:	f830 3022 	ldrh.w	r3, [r0, r2, lsl #2]
 8005c66:	065b      	lsls	r3, r3, #25
 8005c68:	d50b      	bpl.n	0x8005c82
 8005c6a:	f830 3022 	ldrh.w	r3, [r0, r2, lsl #2]
 8005c6e:	f023 03f0 	bic.w	r3, r3, #240	; 0xf0
 8005c72:	051b      	lsls	r3, r3, #20
 8005c74:	0d1b      	lsrs	r3, r3, #20
 8005c76:	f443 4300 	orr.w	r3, r3, #32768	; 0x8000
 8005c7a:	f043 03c0 	orr.w	r3, r3, #192	; 0xc0
 8005c7e:	f820 3022 	strh.w	r3, [r0, r2, lsl #2]
 8005c82:	780a      	ldrb	r2, [r1, #0]
 8005c84:	f830 3022 	ldrh.w	r3, [r0, r2, lsl #2]
 8005c88:	f023 03f0 	bic.w	r3, r3, #240	; 0xf0
 8005c8c:	051b      	lsls	r3, r3, #20
 8005c8e:	0d1b      	lsrs	r3, r3, #20
 8005c90:	f443 4340 	orr.w	r3, r3, #49152	; 0xc000
 8005c94:	f043 0380 	orr.w	r3, r3, #128	; 0x80
 8005c98:	f820 3022 	strh.w	r3, [r0, r2, lsl #2]
 8005c9c:	f248 0280 	movw	r2, #32896	; 0x8080
 8005ca0:	780c      	ldrb	r4, [r1, #0]
 8005ca2:	f830 3024 	ldrh.w	r3, [r0, r4, lsl #2]
 8005ca6:	f423 43e0 	bic.w	r3, r3, #28672	; 0x7000
 8005caa:	f023 0340 	bic.w	r3, r3, #64	; 0x40
 8005cae:	041b      	lsls	r3, r3, #16
 8005cb0:	0c1b      	lsrs	r3, r3, #16
 8005cb2:	4313      	orrs	r3, r2
 8005cb4:	f820 3024 	strh.w	r3, [r0, r4, lsl #2]
 8005cb8:	7809      	ldrb	r1, [r1, #0]
 8005cba:	f830 3021 	ldrh.w	r3, [r0, r1, lsl #2]
 8005cbe:	f423 4380 	bic.w	r3, r3, #16384	; 0x4000
 8005cc2:	f023 0370 	bic.w	r3, r3, #112	; 0x70
 8005cc6:	e7b5      	b.n	0x8005c34
 8005cc8:	2000      	movs	r0, #0
 8005cca:	4770      	bx	lr
 8005ccc:	2000      	movs	r0, #0
 8005cce:	4770      	bx	lr
 8005cd0:	780a      	ldrb	r2, [r1, #0]
 8005cd2:	b98a      	cbnz	r2, 0x8005cf8
 8005cd4:	8803      	ldrh	r3, [r0, #0]
 8005cd6:	f423 4380 	bic.w	r3, r3, #16384	; 0x4000
 8005cda:	f023 0340 	bic.w	r3, r3, #64	; 0x40
 8005cde:	041b      	lsls	r3, r3, #16
 8005ce0:	0c1b      	lsrs	r3, r3, #16
 8005ce2:	f483 5380 	eor.w	r3, r3, #4096	; 0x1000
 8005ce6:	f083 0310 	eor.w	r3, r3, #16
 8005cea:	f443 4300 	orr.w	r3, r3, #32768	; 0x8000
 8005cee:	f043 0380 	orr.w	r3, r3, #128	; 0x80
 8005cf2:	8003      	strh	r3, [r0, #0]
 8005cf4:	2000      	movs	r0, #0
 8005cf6:	4770      	bx	lr
 8005cf8:	784b      	ldrb	r3, [r1, #1]
 8005cfa:	b183      	cbz	r3, 0x8005d1e
 8005cfc:	f830 3022 	ldrh.w	r3, [r0, r2, lsl #2]
 8005d00:	f423 43e0 	bic.w	r3, r3, #28672	; 0x7000
 8005d04:	f023 0340 	bic.w	r3, r3, #64	; 0x40
 8005d08:	041b      	lsls	r3, r3, #16
 8005d0a:	0c1b      	lsrs	r3, r3, #16
 8005d0c:	f083 0310 	eor.w	r3, r3, #16
 8005d10:	f443 4300 	orr.w	r3, r3, #32768	; 0x8000
 8005d14:	f043 0380 	orr.w	r3, r3, #128	; 0x80
 8005d18:	f820 3022 	strh.w	r3, [r0, r2, lsl #2]
 8005d1c:	e7ea      	b.n	0x8005cf4
 8005d1e:	f830 3022 	ldrh.w	r3, [r0, r2, lsl #2]
 8005d22:	f423 4380 	bic.w	r3, r3, #16384	; 0x4000
 8005d26:	f023 0370 	bic.w	r3, r3, #112	; 0x70
 8005d2a:	041b      	lsls	r3, r3, #16
 8005d2c:	0c1b      	lsrs	r3, r3, #16
 8005d2e:	f483 5380 	eor.w	r3, r3, #4096	; 0x1000
 8005d32:	e7ed      	b.n	0x8005d10
 8005d34:	784b      	ldrb	r3, [r1, #1]
 8005d36:	780a      	ldrb	r2, [r1, #0]
 8005d38:	b313      	cbz	r3, 0x8005d80
 8005d3a:	f830 3022 	ldrh.w	r3, [r0, r2, lsl #2]
 8005d3e:	065b      	lsls	r3, r3, #25
 8005d40:	d50b      	bpl.n	0x8005d5a
 8005d42:	f830 3022 	ldrh.w	r3, [r0, r2, lsl #2]
 8005d46:	f023 03f0 	bic.w	r3, r3, #240	; 0xf0
 8005d4a:	051b      	lsls	r3, r3, #20
 8005d4c:	0d1b      	lsrs	r3, r3, #20
 8005d4e:	f443 4300 	orr.w	r3, r3, #32768	; 0x8000
 8005d52:	f043 03c0 	orr.w	r3, r3, #192	; 0xc0
 8005d56:	f820 3022 	strh.w	r3, [r0, r2, lsl #2]
 8005d5a:	780a      	ldrb	r2, [r1, #0]
 8005d5c:	f830 3022 	ldrh.w	r3, [r0, r2, lsl #2]
 8005d60:	f423 43e0 	bic.w	r3, r3, #28672	; 0x7000
 8005d64:	f023 0340 	bic.w	r3, r3, #64	; 0x40
 8005d68:	041b      	lsls	r3, r3, #16
 8005d6a:	0c1b      	lsrs	r3, r3, #16
 8005d6c:	f083 0330 	eor.w	r3, r3, #48	; 0x30
 8005d70:	f443 4300 	orr.w	r3, r3, #32768	; 0x8000
 8005d74:	f043 0380 	orr.w	r3, r3, #128	; 0x80
 8005d78:	f820 3022 	strh.w	r3, [r0, r2, lsl #2]
 8005d7c:	2000      	movs	r0, #0
 8005d7e:	4770      	bx	lr
 8005d80:	f830 3022 	ldrh.w	r3, [r0, r2, lsl #2]
 8005d84:	045b      	lsls	r3, r3, #17
 8005d86:	d50b      	bpl.n	0x8005da0
 8005d88:	f830 3022 	ldrh.w	r3, [r0, r2, lsl #2]
 8005d8c:	f023 03f0 	bic.w	r3, r3, #240	; 0xf0
 8005d90:	051b      	lsls	r3, r3, #20
 8005d92:	0d1b      	lsrs	r3, r3, #20
 8005d94:	f443 4340 	orr.w	r3, r3, #49152	; 0xc000
 8005d98:	f043 0380 	orr.w	r3, r3, #128	; 0x80
 8005d9c:	f820 3022 	strh.w	r3, [r0, r2, lsl #2]
 8005da0:	780a      	ldrb	r2, [r1, #0]
 8005da2:	f830 3022 	ldrh.w	r3, [r0, r2, lsl #2]
 8005da6:	f423 4380 	bic.w	r3, r3, #16384	; 0x4000
 8005daa:	f023 0370 	bic.w	r3, r3, #112	; 0x70
 8005dae:	041b      	lsls	r3, r3, #16
 8005db0:	0c1b      	lsrs	r3, r3, #16
 8005db2:	f483 5340 	eor.w	r3, r3, #12288	; 0x3000
 8005db6:	e7db      	b.n	0x8005d70
 8005db8:	2201      	movs	r2, #1
 8005dba:	4603      	mov	r3, r0
 8005dbc:	f8a0 2040 	strh.w	r2, [r0, #64]	; 0x40
 8005dc0:	2000      	movs	r0, #0
 8005dc2:	2203      	movs	r2, #3
 8005dc4:	f8a3 0044 	strh.w	r0, [r3, #68]	; 0x44
 8005dc8:	f8a3 2040 	strh.w	r2, [r3, #64]	; 0x40
 8005dcc:	4770      	bx	lr
 8005dce:	b911      	cbnz	r1, 0x8005dd6
 8005dd0:	2380      	movs	r3, #128	; 0x80
 8005dd2:	f8a0 304c 	strh.w	r3, [r0, #76]	; 0x4c
 8005dd6:	2000      	movs	r0, #0
 8005dd8:	4770      	bx	lr
 8005dda:	2000      	movs	r0, #0
 8005ddc:	4770      	bx	lr
 8005dde:	2000      	movs	r0, #0
 8005de0:	4770      	bx	lr
 8005de2:	f8b0 0044 	ldrh.w	r0, [r0, #68]	; 0x44
 8005de6:	b280      	uxth	r0, r0
 8005de8:	4770      	bx	lr
 8005dea:	2000      	movs	r0, #0
 8005dec:	4770      	bx	lr
 8005dee:	2000      	movs	r0, #0
 8005df0:	4770      	bx	lr
 8005df2:	2000      	movs	r0, #0
 8005df4:	4770      	bx	lr
 8005df6:	2000      	movs	r0, #0
 8005df8:	4770      	bx	lr
 8005dfa:	4770      	bx	lr
 8005dfc:	2000      	movs	r0, #0
 8005dfe:	4770      	bx	lr
 8005e00:	f8b0 3040 	ldrh.w	r3, [r0, #64]	; 0x40
 8005e04:	b29b      	uxth	r3, r3
 8005e06:	f043 0310 	orr.w	r3, r3, #16
 8005e0a:	f8a0 3040 	strh.w	r3, [r0, #64]	; 0x40
 8005e0e:	2000      	movs	r0, #0
 8005e10:	4770      	bx	lr
 8005e12:	f8b0 3040 	ldrh.w	r3, [r0, #64]	; 0x40
 8005e16:	f023 0310 	bic.w	r3, r3, #16
 8005e1a:	041b      	lsls	r3, r3, #16
 8005e1c:	0c1b      	lsrs	r3, r3, #16
 8005e1e:	f8a0 3040 	strh.w	r3, [r0, #64]	; 0x40
 8005e22:	2000      	movs	r0, #0
 8005e24:	4770      	bx	lr
 8005e26:	b510      	push	{r4, lr}
 8005e28:	2400      	movs	r4, #0
 8005e2a:	3301      	adds	r3, #1
 8005e2c:	f500 6080 	add.w	r0, r0, #1024	; 0x400
 8005e30:	105b      	asrs	r3, r3, #1
 8005e32:	eb00 0242 	add.w	r2, r0, r2, lsl #1
 8005e36:	42a3      	cmp	r3, r4
 8005e38:	d100      	bne.n	0x8005e3c
 8005e3a:	bd10      	pop	{r4, pc}
 8005e3c:	f831 0b02 	ldrh.w	r0, [r1], #2
 8005e40:	f822 0024 	strh.w	r0, [r2, r4, lsl #2]
 8005e44:	3401      	adds	r4, #1
 8005e46:	e7f6      	b.n	0x8005e36
 8005e48:	b570      	push	{r4, r5, r6, lr}
 8005e4a:	460e      	mov	r6, r1
 8005e4c:	698a      	ldr	r2, [r1, #24]
 8005e4e:	7849      	ldrb	r1, [r1, #1]
 8005e50:	4605      	mov	r5, r0
 8005e52:	2901      	cmp	r1, #1
 8005e54:	6933      	ldr	r3, [r6, #16]
 8005e56:	7ab0      	ldrb	r0, [r6, #10]
 8005e58:	d15e      	bne.n	0x8005f18
 8005e5a:	429a      	cmp	r2, r3
 8005e5c:	461c      	mov	r4, r3
 8005e5e:	bf9b      	ittet	ls
 8005e60:	2300      	movls	r3, #0
 8005e62:	4614      	movls	r4, r2
 8005e64:	1ad2      	subhi	r2, r2, r3
 8005e66:	61b3      	strls	r3, [r6, #24]
 8005e68:	bf88      	it	hi
 8005e6a:	61b2      	strhi	r2, [r6, #24]
 8005e6c:	b2a3      	uxth	r3, r4
 8005e6e:	bb08      	cbnz	r0, 0x8005eb4
 8005e70:	88b2      	ldrh	r2, [r6, #4]
 8005e72:	6971      	ldr	r1, [r6, #20]
 8005e74:	4628      	mov	r0, r5
 8005e76:	f7ff ffd6 	bl	0x8005e26
 8005e7a:	f8b5 3050 	ldrh.w	r3, [r5, #80]	; 0x50
 8005e7e:	7832      	ldrb	r2, [r6, #0]
 8005e80:	b29b      	uxth	r3, r3
 8005e82:	eb03 03c2 	add.w	r3, r3, r2, lsl #3
 8005e86:	eb05 0343 	add.w	r3, r5, r3, lsl #1
 8005e8a:	f8c3 4404 	str.w	r4, [r3, #1028]	; 0x404
 8005e8e:	7832      	ldrb	r2, [r6, #0]
 8005e90:	f835 3022 	ldrh.w	r3, [r5, r2, lsl #2]
 8005e94:	f423 43e0 	bic.w	r3, r3, #28672	; 0x7000
 8005e98:	f023 0340 	bic.w	r3, r3, #64	; 0x40
 8005e9c:	041b      	lsls	r3, r3, #16
 8005e9e:	0c1b      	lsrs	r3, r3, #16
 8005ea0:	f083 0330 	eor.w	r3, r3, #48	; 0x30
 8005ea4:	f443 4300 	orr.w	r3, r3, #32768	; 0x8000
 8005ea8:	f043 0380 	orr.w	r3, r3, #128	; 0x80
 8005eac:	f825 3022 	strh.w	r3, [r5, r2, lsl #2]
 8005eb0:	2000      	movs	r0, #0
 8005eb2:	bd70      	pop	{r4, r5, r6, pc}
 8005eb4:	7832      	ldrb	r2, [r6, #0]
 8005eb6:	4628      	mov	r0, r5
 8005eb8:	f835 1022 	ldrh.w	r1, [r5, r2, lsl #2]
 8005ebc:	00d2      	lsls	r2, r2, #3
 8005ebe:	f011 0f40 	tst.w	r1, #64	; 0x40
 8005ec2:	f8b5 1050 	ldrh.w	r1, [r5, #80]	; 0x50
 8005ec6:	b289      	uxth	r1, r1
 8005ec8:	440a      	add	r2, r1
 8005eca:	eb05 0242 	add.w	r2, r5, r2, lsl #1
 8005ece:	f8c2 4404 	str.w	r4, [r2, #1028]	; 0x404
 8005ed2:	6971      	ldr	r1, [r6, #20]
 8005ed4:	bf14      	ite	ne
 8005ed6:	8932      	ldrhne	r2, [r6, #8]
 8005ed8:	88f2      	ldrheq	r2, [r6, #6]
 8005eda:	f7ff ffa4 	bl	0x8005e26
 8005ede:	7873      	ldrb	r3, [r6, #1]
 8005ee0:	7832      	ldrb	r2, [r6, #0]
 8005ee2:	b963      	cbnz	r3, 0x8005efe
 8005ee4:	f835 3022 	ldrh.w	r3, [r5, r2, lsl #2]
 8005ee8:	f023 03f0 	bic.w	r3, r3, #240	; 0xf0
 8005eec:	051b      	lsls	r3, r3, #20
 8005eee:	0d1b      	lsrs	r3, r3, #20
 8005ef0:	f443 4300 	orr.w	r3, r3, #32768	; 0x8000
 8005ef4:	f043 03c0 	orr.w	r3, r3, #192	; 0xc0
 8005ef8:	f825 3022 	strh.w	r3, [r5, r2, lsl #2]
 8005efc:	e7c7      	b.n	0x8005e8e
 8005efe:	2b01      	cmp	r3, #1
 8005f00:	d1c5      	bne.n	0x8005e8e
 8005f02:	f835 3022 	ldrh.w	r3, [r5, r2, lsl #2]
 8005f06:	f023 03f0 	bic.w	r3, r3, #240	; 0xf0
 8005f0a:	051b      	lsls	r3, r3, #20
 8005f0c:	0d1b      	lsrs	r3, r3, #20
 8005f0e:	f443 4340 	orr.w	r3, r3, #49152	; 0xc000
 8005f12:	f043 0380 	orr.w	r3, r3, #128	; 0x80
 8005f16:	e7ef      	b.n	0x8005ef8
 8005f18:	429a      	cmp	r2, r3
 8005f1a:	bf93      	iteet	ls
 8005f1c:	2300      	movls	r3, #0
 8005f1e:	1ad2      	subhi	r2, r2, r3
 8005f20:	61b2      	strhi	r2, [r6, #24]
 8005f22:	61b3      	strls	r3, [r6, #24]
 8005f24:	bf98      	it	ls
 8005f26:	4613      	movls	r3, r2
 8005f28:	7832      	ldrb	r2, [r6, #0]
 8005f2a:	bb18      	cbnz	r0, 0x8005f74
 8005f2c:	f8b5 1050 	ldrh.w	r1, [r5, #80]	; 0x50
 8005f30:	2b3e      	cmp	r3, #62	; 0x3e
 8005f32:	b289      	uxth	r1, r1
 8005f34:	eb01 01c2 	add.w	r1, r1, r2, lsl #3
 8005f38:	f101 0106 	add.w	r1, r1, #6
 8005f3c:	f505 6080 	add.w	r0, r5, #1024	; 0x400
 8005f40:	d949      	bls.n	0x8005fd6
 8005f42:	f3c3 124f 	ubfx	r2, r3, #5, #16
 8005f46:	06dc      	lsls	r4, r3, #27
 8005f48:	bf04      	itt	eq
 8005f4a:	f102 33ff 	addeq.w	r3, r2, #4294967295	; 0xffffffff
 8005f4e:	b29a      	uxtheq	r2, r3
 8005f50:	4b26      	ldr	r3, [pc, #152]	; (0x8005fec)
 8005f52:	ea43 2382 	orr.w	r3, r3, r2, lsl #10
 8005f56:	b29b      	uxth	r3, r3
 8005f58:	f840 3011 	str.w	r3, [r0, r1, lsl #1]
 8005f5c:	7832      	ldrb	r2, [r6, #0]
 8005f5e:	f835 3022 	ldrh.w	r3, [r5, r2, lsl #2]
 8005f62:	f423 4380 	bic.w	r3, r3, #16384	; 0x4000
 8005f66:	f023 0370 	bic.w	r3, r3, #112	; 0x70
 8005f6a:	041b      	lsls	r3, r3, #16
 8005f6c:	0c1b      	lsrs	r3, r3, #16
 8005f6e:	f483 5340 	eor.w	r3, r3, #12288	; 0x3000
 8005f72:	e797      	b.n	0x8005ea4
 8005f74:	b9b9      	cbnz	r1, 0x8005fa6
 8005f76:	f8b5 1050 	ldrh.w	r1, [r5, #80]	; 0x50
 8005f7a:	2b3e      	cmp	r3, #62	; 0x3e
 8005f7c:	b289      	uxth	r1, r1
 8005f7e:	eb01 01c2 	add.w	r1, r1, r2, lsl #3
 8005f82:	f101 0102 	add.w	r1, r1, #2
 8005f86:	f505 6480 	add.w	r4, r5, #1024	; 0x400
 8005f8a:	d91c      	bls.n	0x8005fc6
 8005f8c:	f3c3 104f 	ubfx	r0, r3, #5, #16
 8005f90:	06da      	lsls	r2, r3, #27
 8005f92:	bf04      	itt	eq
 8005f94:	f100 32ff 	addeq.w	r2, r0, #4294967295	; 0xffffffff
 8005f98:	b290      	uxtheq	r0, r2
 8005f9a:	4a14      	ldr	r2, [pc, #80]	; (0x8005fec)
 8005f9c:	ea42 2280 	orr.w	r2, r2, r0, lsl #10
 8005fa0:	b292      	uxth	r2, r2
 8005fa2:	f844 2011 	str.w	r2, [r4, r1, lsl #1]
 8005fa6:	7871      	ldrb	r1, [r6, #1]
 8005fa8:	7832      	ldrb	r2, [r6, #0]
 8005faa:	2900      	cmp	r1, #0
 8005fac:	d0be      	beq.n	0x8005f2c
 8005fae:	2901      	cmp	r1, #1
 8005fb0:	d1d4      	bne.n	0x8005f5c
 8005fb2:	f8b5 1050 	ldrh.w	r1, [r5, #80]	; 0x50
 8005fb6:	b289      	uxth	r1, r1
 8005fb8:	eb01 01c2 	add.w	r1, r1, r2, lsl #3
 8005fbc:	eb05 0141 	add.w	r1, r5, r1, lsl #1
 8005fc0:	f8c1 3404 	str.w	r3, [r1, #1028]	; 0x404
 8005fc4:	e7ca      	b.n	0x8005f5c
 8005fc6:	f3c3 024f 	ubfx	r2, r3, #1, #16
 8005fca:	07d8      	lsls	r0, r3, #31
 8005fcc:	bf44      	itt	mi
 8005fce:	3201      	addmi	r2, #1
 8005fd0:	b292      	uxthmi	r2, r2
 8005fd2:	0292      	lsls	r2, r2, #10
 8005fd4:	e7e4      	b.n	0x8005fa0
 8005fd6:	f3c3 024f 	ubfx	r2, r3, #1, #16
 8005fda:	07db      	lsls	r3, r3, #31
 8005fdc:	bf44      	itt	mi
 8005fde:	3201      	addmi	r2, #1
 8005fe0:	b292      	uxthmi	r2, r2
 8005fe2:	0292      	lsls	r2, r2, #10
 8005fe4:	b292      	uxth	r2, r2
 8005fe6:	f840 2011 	str.w	r2, [r0, r1, lsl #1]
 8005fea:	e7b7      	b.n	0x8005f5c
 8005fec:	8000      	strh	r0, [r0, #0]
 8005fee:	ffff b510 	vsli.32	d27, d0, #31
 8005ff2:	2400      	movs	r4, #0
 8005ff4:	3301      	adds	r3, #1
 8005ff6:	f500 6080 	add.w	r0, r0, #1024	; 0x400
 8005ffa:	105b      	asrs	r3, r3, #1
 8005ffc:	eb00 0242 	add.w	r2, r0, r2, lsl #1
 8006000:	42a3      	cmp	r3, r4
 8006002:	d100      	bne.n	0x8006006
 8006004:	bd10      	pop	{r4, pc}
 8006006:	f852 0024 	ldr.w	r0, [r2, r4, lsl #2]
 800600a:	f821 0014 	strh.w	r0, [r1, r4, lsl #1]
 800600e:	3401      	adds	r4, #1
 8006010:	e7f6      	b.n	0x8006000
 8006012:	2300      	movs	r3, #0
 8006014:	b510      	push	{r4, lr}
 8006016:	429a      	cmp	r2, r3
 8006018:	d102      	bne.n	0x8006020
 800601a:	bc10      	pop	{r4}
 800601c:	bc02      	pop	{r1}
 800601e:	4708      	bx	r1
 8006020:	5ccc      	ldrb	r4, [r1, r3]
 8006022:	54c4      	strb	r4, [r0, r3]
 8006024:	3301      	adds	r3, #1
 8006026:	e7f6      	b.n	0x8006016
 8006028:	0003      	movs	r3, r0
 800602a:	1882      	adds	r2, r0, r2
 800602c:	4293      	cmp	r3, r2
 800602e:	d100      	bne.n	0x8006032
 8006030:	4770      	bx	lr
 8006032:	7019      	strb	r1, [r3, #0]
 8006034:	3301      	adds	r3, #1
 8006036:	e7f9      	b.n	0x800602c
